
software.elf:     file format elf32-microblazeel


Disassembly of section .vectors.reset:

00000000 <_start>:
   0:	b0000000 	imm	0
   4:	b8080050 	brai	80	// 50 <_start1>

Disassembly of section .vectors.sw_exception:

00000008 <_vector_sw_exception>:
   8:	b0000000 	imm	0
   c:	b8082758 	brai	10072	// 2758 <_exception_handler>

Disassembly of section .vectors.interrupt:

00000010 <_vector_interrupt>:
  10:	b0000000 	imm	0
  14:	b80827e0 	brai	10208	// 27e0 <__interrupt_handler>

Disassembly of section .vectors.hw_exception:

00000020 <_vector_hw_exception>:
  20:	b0000000 	imm	0
  24:	b808276c 	brai	10092	// 276c <_hw_exception_handler>

Disassembly of section .text:

00000050 <_start1>:
      50:	b0000000 	imm	0
      54:	31a08c68 	addik	r13, r0, -29592	// 8c68 <_SDA_BASE_>
      58:	b0000000 	imm	0
      5c:	304076a9 	addik	r2, r0, 30377	// 76a9 <_SDA2_BASE_>
      60:	b0000000 	imm	0
      64:	302095e0 	addik	r1, r0, -27168
      68:	b0000000 	imm	0
      6c:	b9f4013c 	brlid	r15, 316	// 1a8 <_crtinit>
      70:	80000000 	or	r0, r0, r0
      74:	b0000000 	imm	0
      78:	b9f46ba4 	brlid	r15, 27556	// 6c1c <exit>
      7c:	30a30000 	addik	r5, r3, 0

00000080 <_exit>:
      80:	b8000000 	bri	0	// 80 <_exit>

00000084 <__do_global_dtors_aux>:
      84:	b0000000 	imm	0
      88:	e0608c68 	lbui	r3, r0, -29592	// 8c68 <_SDA_BASE_>
      8c:	3021ffe0 	addik	r1, r1, -32
      90:	f9e10000 	swi	r15, r1, 0
      94:	be2300a0 	bneid	r3, 160		// 134
      98:	fa61001c 	swi	r19, r1, 28
      9c:	b0000000 	imm	0
      a0:	308070c8 	addik	r4, r0, 28872	// 70c8 <__CTOR_END__>
      a4:	b0000000 	imm	0
      a8:	30a070cc 	addik	r5, r0, 28876	// 70cc <__DTOR_END__>
      ac:	b0000000 	imm	0
      b0:	e8608c6c 	lwi	r3, r0, -29588	// 8c6c <dtor_idx.2339>
      b4:	14842800 	rsubk	r4, r4, r5
      b8:	12602000 	addk	r19, r0, r4
      bc:	92640001 	sra	r19, r4
      c0:	92730001 	sra	r19, r19
      c4:	3273ffff 	addik	r19, r19, -1
      c8:	16531803 	cmpu	r18, r19, r3
      cc:	beb20040 	bgeid	r18, 64		// 10c
      d0:	30630001 	addik	r3, r3, 1
      d4:	10831800 	addk	r4, r3, r3
      d8:	10842000 	addk	r4, r4, r4
      dc:	b0000000 	imm	0
      e0:	308470c8 	addik	r4, r4, 28872
      e4:	e8840000 	lwi	r4, r4, 0
      e8:	b0000000 	imm	0
      ec:	f8608c6c 	swi	r3, r0, -29588	// 8c6c <dtor_idx.2339>
      f0:	99fc2000 	brald	r15, r4
      f4:	80000000 	or	r0, r0, r0
      f8:	b0000000 	imm	0
      fc:	e8608c6c 	lwi	r3, r0, -29588	// 8c6c <dtor_idx.2339>
     100:	16531803 	cmpu	r18, r19, r3
     104:	be52ffd0 	bltid	r18, -48		// d4
     108:	30630001 	addik	r3, r3, 1
     10c:	b0000000 	imm	0
     110:	30600000 	addik	r3, r0, 0
     114:	bc030014 	beqi	r3, 20		// 128
     118:	b0000000 	imm	0
     11c:	30a08c20 	addik	r5, r0, -29664	// 8c20 <__data_end>
     120:	99fc1800 	brald	r15, r3
     124:	80000000 	or	r0, r0, r0
     128:	30600001 	addik	r3, r0, 1
     12c:	b0000000 	imm	0
     130:	f0608c68 	sbi	r3, r0, -29592	// 8c68 <_SDA_BASE_>
     134:	e9e10000 	lwi	r15, r1, 0
     138:	ea61001c 	lwi	r19, r1, 28
     13c:	b60f0008 	rtsd	r15, 8
     140:	30210020 	addik	r1, r1, 32

00000144 <frame_dummy>:
     144:	b0000000 	imm	0
     148:	30600000 	addik	r3, r0, 0
     14c:	3021ffe4 	addik	r1, r1, -28
     150:	be030020 	beqid	r3, 32		// 170
     154:	f9e10000 	swi	r15, r1, 0
     158:	b0000000 	imm	0
     15c:	30a08c20 	addik	r5, r0, -29664	// 8c20 <__data_end>
     160:	b0000000 	imm	0
     164:	30c08c70 	addik	r6, r0, -29584	// 8c70 <object.2349>
     168:	99fc1800 	brald	r15, r3
     16c:	80000000 	or	r0, r0, r0
     170:	b0000000 	imm	0
     174:	e8608c60 	lwi	r3, r0, -29600	// 8c60 <__JCR_END__>
     178:	be030028 	beqid	r3, 40		// 1a0
     17c:	e9e10000 	lwi	r15, r1, 0
     180:	b0000000 	imm	0
     184:	30600000 	addik	r3, r0, 0
     188:	bc030018 	beqi	r3, 24		// 1a0
     18c:	b0000000 	imm	0
     190:	30a08c60 	addik	r5, r0, -29600	// 8c60 <__JCR_END__>
     194:	99fc1800 	brald	r15, r3
     198:	80000000 	or	r0, r0, r0
     19c:	e9e10000 	lwi	r15, r1, 0
     1a0:	b60f0008 	rtsd	r15, 8
     1a4:	3021001c 	addik	r1, r1, 28

000001a8 <_crtinit>:
     1a8:	2021ffec 	addi	r1, r1, -20
     1ac:	f9e10000 	swi	r15, r1, 0
     1b0:	b0000000 	imm	0
     1b4:	20c08c68 	addi	r6, r0, -29592	// 8c68 <_SDA_BASE_>
     1b8:	b0000000 	imm	0
     1bc:	20e08c68 	addi	r7, r0, -29592	// 8c68 <_SDA_BASE_>
     1c0:	06463800 	rsub	r18, r6, r7
     1c4:	bc720014 	blei	r18, 20		// 1d8
     1c8:	f8060000 	swi	r0, r6, 0
     1cc:	20c60004 	addi	r6, r6, 4
     1d0:	06463800 	rsub	r18, r6, r7
     1d4:	bc92fff4 	bgti	r18, -12		// 1c8
     1d8:	b0000000 	imm	0
     1dc:	20c08c68 	addi	r6, r0, -29592	// 8c68 <_SDA_BASE_>
     1e0:	b0000000 	imm	0
     1e4:	20e08dec 	addi	r7, r0, -29204	// 8dec <__bss_end>
     1e8:	06463800 	rsub	r18, r6, r7
     1ec:	bc720014 	blei	r18, 20		// 200
     1f0:	f8060000 	swi	r0, r6, 0
     1f4:	20c60004 	addi	r6, r6, 4
     1f8:	06463800 	rsub	r18, r6, r7
     1fc:	bc92fff4 	bgti	r18, -12		// 1f0
     200:	b0000000 	imm	0
     204:	b9f42560 	brlid	r15, 9568	// 2764 <_program_init>
     208:	80000000 	or	r0, r0, r0
     20c:	b0000000 	imm	0
     210:	b9f46e54 	brlid	r15, 28244	// 7064 <__init>
     214:	80000000 	or	r0, r0, r0
     218:	20c00000 	addi	r6, r0, 0
     21c:	20e00000 	addi	r7, r0, 0
     220:	b0000000 	imm	0
     224:	b9f40414 	brlid	r15, 1044	// 638 <main>
     228:	20a00000 	addi	r5, r0, 0
     22c:	32630000 	addik	r19, r3, 0
     230:	b0000000 	imm	0
     234:	b9f46e6c 	brlid	r15, 28268	// 70a0 <__fini>
     238:	80000000 	or	r0, r0, r0
     23c:	b0000000 	imm	0
     240:	b9f4251c 	brlid	r15, 9500	// 275c <_program_clean>
     244:	80000000 	or	r0, r0, r0
     248:	c9e10000 	lw	r15, r1, r0
     24c:	30730000 	addik	r3, r19, 0
     250:	b60f0008 	rtsd	r15, 8
     254:	20210014 	addi	r1, r1, 20

00000258 <oneSecondInterruptRoutine>:
     258:	3021ffac 	addik	r1, r1, -84
     25c:	f9e10000 	swi	r15, r1, 0
     260:	fa610030 	swi	r19, r1, 48
     264:	fac10034 	swi	r22, r1, 52
     268:	fae10038 	swi	r23, r1, 56
     26c:	fb01003c 	swi	r24, r1, 60
     270:	fb210040 	swi	r25, r1, 64
     274:	fb410044 	swi	r26, r1, 68
     278:	fb610048 	swi	r27, r1, 72
     27c:	fb81004c 	swi	r28, r1, 76
     280:	fba10050 	swi	r29, r1, 80
     284:	12610000 	addk	r19, r1, r0
     288:	f8b30058 	swi	r5, r19, 88
     28c:	b0000000 	imm	0
     290:	e8608c94 	lwi	r3, r0, -29548	// 8c94 <second>
     294:	30630001 	addik	r3, r3, 1
     298:	b0000000 	imm	0
     29c:	f8608c94 	swi	r3, r0, -29548	// 8c94 <second>
     2a0:	30600006 	addik	r3, r0, 6
     2a4:	b0000000 	imm	0
     2a8:	f86076c8 	swi	r3, r0, 30408	// 76c8 <state>
     2ac:	b0000000 	imm	0
     2b0:	e8808c94 	lwi	r4, r0, -29548	// 8c94 <second>
     2b4:	b0000000 	imm	0
     2b8:	e86076b8 	lwi	r3, r0, 30392	// 76b8 <interval>
     2bc:	10a40000 	addk	r5, r4, r0
     2c0:	10c30000 	addk	r6, r3, r0
     2c4:	b0000000 	imm	0
     2c8:	b9f45ca8 	brlid	r15, 23720	// 5f70 <__modsi3>
     2cc:	80000000 	or	r0, r0, r0
     2d0:	bc230010 	bnei	r3, 16		// 2e0
     2d4:	30600004 	addik	r3, r0, 4
     2d8:	b0000000 	imm	0
     2dc:	f86076c8 	swi	r3, r0, 30408	// 76c8 <state>
     2e0:	b0000000 	imm	0
     2e4:	eb408c94 	lwi	r26, r0, -29548	// 8c94 <second>
     2e8:	b0000000 	imm	0
     2ec:	eb208c98 	lwi	r25, r0, -29544	// 8c98 <count_errors>
     2f0:	b0000000 	imm	0
     2f4:	eb008c9c 	lwi	r24, r0, -29540	// 8c9c <count_errors_all>
     2f8:	b0000000 	imm	0
     2fc:	eae076b4 	lwi	r23, r0, 30388	// 76b4 <series_index>
     300:	b0000000 	imm	0
     304:	e86076b4 	lwi	r3, r0, 30388	// 76b4 <series_index>
     308:	10631800 	addk	r3, r3, r3
     30c:	10631800 	addk	r3, r3, r3
     310:	b0000000 	imm	0
     314:	306376cc 	addik	r3, r3, 30412
     318:	eac30000 	lwi	r22, r3, 0
     31c:	b0000000 	imm	0
     320:	e86076b4 	lwi	r3, r0, 30388	// 76b4 <series_index>
     324:	10631800 	addk	r3, r3, r3
     328:	10631800 	addk	r3, r3, r3
     32c:	b0000000 	imm	0
     330:	30637d1c 	addik	r3, r3, 32028
     334:	eba30000 	lwi	r29, r3, 0
     338:	b0000000 	imm	0
     33c:	e86076b4 	lwi	r3, r0, 30388	// 76b4 <series_index>
     340:	10631800 	addk	r3, r3, r3
     344:	10631800 	addk	r3, r3, r3
     348:	b0000000 	imm	0
     34c:	3063836c 	addik	r3, r3, -31892
     350:	eb830000 	lwi	r28, r3, 0
     354:	b0000000 	imm	0
     358:	e86076b4 	lwi	r3, r0, 30388	// 76b4 <series_index>
     35c:	10631800 	addk	r3, r3, r3
     360:	10631800 	addk	r3, r3, r3
     364:	b0000000 	imm	0
     368:	306376cc 	addik	r3, r3, 30412
     36c:	e8830000 	lwi	r4, r3, 0
     370:	10640000 	addk	r3, r4, r0
     374:	10631800 	addk	r3, r3, r3
     378:	10632000 	addk	r3, r3, r4
     37c:	10a31800 	addk	r5, r3, r3
     380:	10a52800 	addk	r5, r5, r5
     384:	10a52800 	addk	r5, r5, r5
     388:	10a52800 	addk	r5, r5, r5
     38c:	10a52800 	addk	r5, r5, r5
     390:	10632800 	addk	r3, r3, r5
     394:	13632000 	addk	r27, r3, r4
     398:	b0000000 	imm	0
     39c:	e86076b4 	lwi	r3, r0, 30388	// 76b4 <series_index>
     3a0:	10631800 	addk	r3, r3, r3
     3a4:	10631800 	addk	r3, r3, r3
     3a8:	b0000000 	imm	0
     3ac:	30637d1c 	addik	r3, r3, 32028
     3b0:	e8830000 	lwi	r4, r3, 0
     3b4:	b0000000 	imm	0
     3b8:	e86076b4 	lwi	r3, r0, 30388	// 76b4 <series_index>
     3bc:	10631800 	addk	r3, r3, r3
     3c0:	10631800 	addk	r3, r3, r3
     3c4:	b0000000 	imm	0
     3c8:	3063836c 	addik	r3, r3, -31892
     3cc:	e8630000 	lwi	r3, r3, 0
     3d0:	10a40000 	addk	r5, r4, r0
     3d4:	10c30000 	addk	r6, r3, r0
     3d8:	b0000000 	imm	0
     3dc:	b9f45c30 	brlid	r15, 23600	// 600c <__mulsi3>
     3e0:	80000000 	or	r0, r0, r0
     3e4:	10bb0000 	addk	r5, r27, r0
     3e8:	10c30000 	addk	r6, r3, r0
     3ec:	b0000000 	imm	0
     3f0:	b9f45ae4 	brlid	r15, 23268	// 5ed4 <__divsi3>
     3f4:	80000000 	or	r0, r0, r0
     3f8:	13630000 	addk	r27, r3, r0
     3fc:	b0000000 	imm	0
     400:	e8608c90 	lwi	r3, r0, -29552	// 8c90 <m_ms>
     404:	11001800 	addk	r8, r0, r3
     408:	01284000 	add	r9, r8, r8
     40c:	09200000 	addc	r9, r0, r0
     410:	bc090008 	beqi	r9, 8		// 418
     414:	2120ffff 	addi	r9, r0, -1
     418:	30c00002 	addik	r6, r0, 2
     41c:	b000540b 	imm	21515
     420:	30a0e400 	addik	r5, r0, -7168
     424:	10e80000 	addk	r7, r8, r0
     428:	11090000 	addk	r8, r9, r0
     42c:	b0000000 	imm	0
     430:	b9f44598 	brlid	r15, 17816	// 49c8 <__divdi3>
     434:	80000000 	or	r0, r0, r0
     438:	10a40000 	addk	r5, r4, r0
     43c:	10830000 	addk	r4, r3, r0
     440:	fba1001c 	swi	r29, r1, 28
     444:	fb810020 	swi	r28, r1, 32
     448:	fb610024 	swi	r27, r1, 36
     44c:	f8810028 	swi	r4, r1, 40
     450:	f8a1002c 	swi	r5, r1, 44
     454:	b0000000 	imm	0
     458:	30a070d0 	addik	r5, r0, 28880	// 70d0 <__rodata_start>
     45c:	10da0000 	addk	r6, r26, r0
     460:	10f90000 	addk	r7, r25, r0
     464:	11180000 	addk	r8, r24, r0
     468:	11370000 	addk	r9, r23, r0
     46c:	11560000 	addk	r10, r22, r0
     470:	b0000000 	imm	0
     474:	b9f41e3c 	brlid	r15, 7740	// 22b0 <xil_printf>
     478:	80000000 	or	r0, r0, r0
     47c:	b0000000 	imm	0
     480:	f8008c98 	swi	r0, r0, -29544	// 8c98 <count_errors>
     484:	e9e10000 	lwi	r15, r1, 0
     488:	10330000 	addk	r1, r19, r0
     48c:	ea610030 	lwi	r19, r1, 48
     490:	eac10034 	lwi	r22, r1, 52
     494:	eae10038 	lwi	r23, r1, 56
     498:	eb01003c 	lwi	r24, r1, 60
     49c:	eb210040 	lwi	r25, r1, 64
     4a0:	eb410044 	lwi	r26, r1, 68
     4a4:	eb610048 	lwi	r27, r1, 72
     4a8:	eb81004c 	lwi	r28, r1, 76
     4ac:	eba10050 	lwi	r29, r1, 80
     4b0:	30210054 	addik	r1, r1, 84
     4b4:	b60f0008 	rtsd	r15, 8
     4b8:	80000000 	or	r0, r0, r0

000004bc <oneMillisecondInterruptRoutine>:
     4bc:	3021fff8 	addik	r1, r1, -8
     4c0:	fa610004 	swi	r19, r1, 4
     4c4:	12610000 	addk	r19, r1, r0
     4c8:	f8b3000c 	swi	r5, r19, 12
     4cc:	b0000000 	imm	0
     4d0:	e8608c8c 	lwi	r3, r0, -29556	// 8c8c <ms>
     4d4:	30630001 	addik	r3, r3, 1
     4d8:	b0000000 	imm	0
     4dc:	f8608c8c 	swi	r3, r0, -29556	// 8c8c <ms>
     4e0:	10330000 	addk	r1, r19, r0
     4e4:	ea610004 	lwi	r19, r1, 4
     4e8:	30210008 	addik	r1, r1, 8
     4ec:	b60f0008 	rtsd	r15, 8
     4f0:	80000000 	or	r0, r0, r0

000004f4 <testInterruptRoutine1>:
     4f4:	3021fff8 	addik	r1, r1, -8
     4f8:	fa610004 	swi	r19, r1, 4
     4fc:	12610000 	addk	r19, r1, r0
     500:	f8b3000c 	swi	r5, r19, 12
     504:	10330000 	addk	r1, r19, r0
     508:	ea610004 	lwi	r19, r1, 4
     50c:	30210008 	addik	r1, r1, 8
     510:	b60f0008 	rtsd	r15, 8
     514:	80000000 	or	r0, r0, r0

00000518 <testInterruptRoutine2>:
     518:	3021fff8 	addik	r1, r1, -8
     51c:	fa610004 	swi	r19, r1, 4
     520:	12610000 	addk	r19, r1, r0
     524:	f8b3000c 	swi	r5, r19, 12
     528:	10330000 	addk	r1, r19, r0
     52c:	ea610004 	lwi	r19, r1, 4
     530:	30210008 	addik	r1, r1, 8
     534:	b60f0008 	rtsd	r15, 8
     538:	80000000 	or	r0, r0, r0

0000053c <errorObservationInterruptRoutine>:
     53c:	3021ffe0 	addik	r1, r1, -32
     540:	f9e10000 	swi	r15, r1, 0
     544:	fa61001c 	swi	r19, r1, 28
     548:	12610000 	addk	r19, r1, r0
     54c:	f8b30024 	swi	r5, r19, 36
     550:	b0000000 	imm	0
     554:	30a08cb0 	addik	r5, r0, -29520	// 8cb0 <iomdle>
     558:	30c0001e 	addik	r6, r0, 30
     55c:	b0000000 	imm	0
     560:	b9f42858 	brlid	r15, 10328	// 2db8 <XIOModule_Disable>
     564:	80000000 	or	r0, r0, r0
     568:	b0000000 	imm	0
     56c:	e8608c98 	lwi	r3, r0, -29544	// 8c98 <count_errors>
     570:	30630001 	addik	r3, r3, 1
     574:	b0000000 	imm	0
     578:	f8608c98 	swi	r3, r0, -29544	// 8c98 <count_errors>
     57c:	b0000000 	imm	0
     580:	e8608c9c 	lwi	r3, r0, -29540	// 8c9c <count_errors_all>
     584:	30630001 	addik	r3, r3, 1
     588:	b0000000 	imm	0
     58c:	f8608c9c 	swi	r3, r0, -29540	// 8c9c <count_errors_all>
     590:	b0000000 	imm	0
     594:	30a08cb0 	addik	r5, r0, -29520	// 8cb0 <iomdle>
     598:	30c00001 	addik	r6, r0, 1
     59c:	30e00002 	addik	r7, r0, 2
     5a0:	b0000000 	imm	0
     5a4:	b9f42e30 	brlid	r15, 11824	// 33d4 <XIOModule_DiscreteWrite>
     5a8:	80000000 	or	r0, r0, r0
     5ac:	b0000000 	imm	0
     5b0:	30a08cb0 	addik	r5, r0, -29520	// 8cb0 <iomdle>
     5b4:	30c00001 	addik	r6, r0, 1
     5b8:	10e00000 	addk	r7, r0, r0
     5bc:	b0000000 	imm	0
     5c0:	b9f42e14 	brlid	r15, 11796	// 33d4 <XIOModule_DiscreteWrite>
     5c4:	80000000 	or	r0, r0, r0
     5c8:	b0000000 	imm	0
     5cc:	30a08cb0 	addik	r5, r0, -29520	// 8cb0 <iomdle>
     5d0:	30c0001e 	addik	r6, r0, 30
     5d4:	b0000000 	imm	0
     5d8:	b9f426fc 	brlid	r15, 9980	// 2cd4 <XIOModule_Enable>
     5dc:	80000000 	or	r0, r0, r0
     5e0:	e9e10000 	lwi	r15, r1, 0
     5e4:	10330000 	addk	r1, r19, r0
     5e8:	ea61001c 	lwi	r19, r1, 28
     5ec:	30210020 	addik	r1, r1, 32
     5f0:	b60f0008 	rtsd	r15, 8
     5f4:	80000000 	or	r0, r0, r0

000005f8 <measureFrequencyInterruptRoutine>:
     5f8:	3021fff8 	addik	r1, r1, -8
     5fc:	fa610004 	swi	r19, r1, 4
     600:	12610000 	addk	r19, r1, r0
     604:	f8b3000c 	swi	r5, r19, 12
     608:	b0000000 	imm	0
     60c:	e8608c8c 	lwi	r3, r0, -29556	// 8c8c <ms>
     610:	b0000000 	imm	0
     614:	f8608c90 	swi	r3, r0, -29552	// 8c90 <m_ms>
     618:	30600008 	addik	r3, r0, 8	// 8 <_vector_sw_exception>
     61c:	b0000000 	imm	0
     620:	f86076c8 	swi	r3, r0, 30408	// 76c8 <state>
     624:	10330000 	addk	r1, r19, r0
     628:	ea610004 	lwi	r19, r1, 4
     62c:	30210008 	addik	r1, r1, 8
     630:	b60f0008 	rtsd	r15, 8
     634:	80000000 	or	r0, r0, r0

00000638 <main>:
     638:	3021ffd0 	addik	r1, r1, -48
     63c:	f9e10000 	swi	r15, r1, 0
     640:	fa61002c 	swi	r19, r1, 44
     644:	12610000 	addk	r19, r1, r0
     648:	b0000000 	imm	0
     64c:	30a08cb0 	addik	r5, r0, -29520	// 8cb0 <iomdle>
     650:	10c00000 	addk	r6, r0, r0
     654:	b0000000 	imm	0
     658:	b9f42f60 	brlid	r15, 12128	// 35b8 <XIOModule_Initialize>
     65c:	80000000 	or	r0, r0, r0
     660:	f873001c 	swi	r3, r19, 28
     664:	b0000000 	imm	0
     668:	30a08cb0 	addik	r5, r0, -29520	// 8cb0 <iomdle>
     66c:	b0000000 	imm	0
     670:	b9f42310 	brlid	r15, 8976	// 2980 <XIOModule_Start>
     674:	80000000 	or	r0, r0, r0
     678:	f873001c 	swi	r3, r19, 28
     67c:	b0000000 	imm	0
     680:	e86076c8 	lwi	r3, r0, 30408	// 76c8 <state>
     684:	30800008 	addik	r4, r0, 8	// 8 <_vector_sw_exception>
     688:	16432003 	cmpu	r18, r3, r4
     68c:	bc5200f0 	blti	r18, 240		// 77c
     690:	10631800 	addk	r3, r3, r3
     694:	10631800 	addk	r3, r3, r3
     698:	b0000000 	imm	0
     69c:	306370f8 	addik	r3, r3, 28920
     6a0:	e8630000 	lwi	r3, r3, 0
     6a4:	98081800 	bra	r3
     6a8:	b9f40258 	brlid	r15, 600	// 900 <initSystem>
     6ac:	80000000 	or	r0, r0, r0
     6b0:	b9f40474 	brlid	r15, 1140	// b24 <initFrequency>
     6b4:	80000000 	or	r0, r0, r0
     6b8:	b9f401b4 	brlid	r15, 436	// 86c <resetCounter>
     6bc:	80000000 	or	r0, r0, r0
     6c0:	30600001 	addik	r3, r0, 1
     6c4:	b0000000 	imm	0
     6c8:	f86076c8 	swi	r3, r0, 30408	// 76c8 <state>
     6cc:	b80000c4 	bri	196		// 790
     6d0:	30600001 	addik	r3, r0, 1
     6d4:	b0000000 	imm	0
     6d8:	f86076c8 	swi	r3, r0, 30408	// 76c8 <state>
     6dc:	b80000b4 	bri	180		// 790
     6e0:	30600001 	addik	r3, r0, 1
     6e4:	b0000000 	imm	0
     6e8:	f86076c8 	swi	r3, r0, 30408	// 76c8 <state>
     6ec:	b80000a4 	bri	164		// 790
     6f0:	b9f4017c 	brlid	r15, 380	// 86c <resetCounter>
     6f4:	80000000 	or	r0, r0, r0
     6f8:	b0000000 	imm	0
     6fc:	f8008c8c 	swi	r0, r0, -29556	// 8c8c <ms>
     700:	30600001 	addik	r3, r0, 1
     704:	b0000000 	imm	0
     708:	f86076c8 	swi	r3, r0, 30408	// 76c8 <state>
     70c:	b8000084 	bri	132		// 790
     710:	b0000000 	imm	0
     714:	30a08cb0 	addik	r5, r0, -29520	// 8cb0 <iomdle>
     718:	30c0001e 	addik	r6, r0, 30
     71c:	b0000000 	imm	0
     720:	b9f42698 	brlid	r15, 9880	// 2db8 <XIOModule_Disable>
     724:	80000000 	or	r0, r0, r0
     728:	b9f404d4 	brlid	r15, 1236	// bfc <increaseFrequency>
     72c:	80000000 	or	r0, r0, r0
     730:	b0000000 	imm	0
     734:	30a08cb0 	addik	r5, r0, -29520	// 8cb0 <iomdle>
     738:	30c0001e 	addik	r6, r0, 30
     73c:	b0000000 	imm	0
     740:	b9f42594 	brlid	r15, 9620	// 2cd4 <XIOModule_Enable>
     744:	80000000 	or	r0, r0, r0
     748:	30600001 	addik	r3, r0, 1
     74c:	b0000000 	imm	0
     750:	f86076c8 	swi	r3, r0, 30408	// 76c8 <state>
     754:	b800003c 	bri	60		// 790
     758:	b9f40174 	brlid	r15, 372	// 8cc <cleanUp>
     75c:	80000000 	or	r0, r0, r0
     760:	10600000 	addk	r3, r0, r0
     764:	e9e10000 	lwi	r15, r1, 0
     768:	10330000 	addk	r1, r19, r0
     76c:	ea61002c 	lwi	r19, r1, 44
     770:	30210030 	addik	r1, r1, 48
     774:	b60f0008 	rtsd	r15, 8
     778:	80000000 	or	r0, r0, r0
     77c:	30600001 	addik	r3, r0, 1
     780:	b0000000 	imm	0
     784:	f86076c8 	swi	r3, r0, 30408	// 76c8 <state>
     788:	b8000008 	bri	8		// 790
     78c:	80000000 	or	r0, r0, r0
     790:	b800feec 	bri	-276		// 67c

00000794 <countError>:
     794:	3021fff8 	addik	r1, r1, -8
     798:	fa610004 	swi	r19, r1, 4
     79c:	12610000 	addk	r19, r1, r0
     7a0:	b0000000 	imm	0
     7a4:	e8608c98 	lwi	r3, r0, -29544	// 8c98 <count_errors>
     7a8:	30630001 	addik	r3, r3, 1
     7ac:	b0000000 	imm	0
     7b0:	f8608c98 	swi	r3, r0, -29544	// 8c98 <count_errors>
     7b4:	b0000000 	imm	0
     7b8:	e8608c9c 	lwi	r3, r0, -29540	// 8c9c <count_errors_all>
     7bc:	30630001 	addik	r3, r3, 1
     7c0:	b0000000 	imm	0
     7c4:	f8608c9c 	swi	r3, r0, -29540	// 8c9c <count_errors_all>
     7c8:	10330000 	addk	r1, r19, r0
     7cc:	ea610004 	lwi	r19, r1, 4
     7d0:	30210008 	addik	r1, r1, 8
     7d4:	b60f0008 	rtsd	r15, 8
     7d8:	80000000 	or	r0, r0, r0

000007dc <resetTestcircuit>:
     7dc:	3021ffe0 	addik	r1, r1, -32
     7e0:	f9e10000 	swi	r15, r1, 0
     7e4:	fa61001c 	swi	r19, r1, 28
     7e8:	12610000 	addk	r19, r1, r0
     7ec:	b0000000 	imm	0
     7f0:	30a08cb0 	addik	r5, r0, -29520	// 8cb0 <iomdle>
     7f4:	30c0001e 	addik	r6, r0, 30
     7f8:	b0000000 	imm	0
     7fc:	b9f425bc 	brlid	r15, 9660	// 2db8 <XIOModule_Disable>
     800:	80000000 	or	r0, r0, r0
     804:	b0000000 	imm	0
     808:	30a08cb0 	addik	r5, r0, -29520	// 8cb0 <iomdle>
     80c:	30c00001 	addik	r6, r0, 1
     810:	30e00002 	addik	r7, r0, 2
     814:	b0000000 	imm	0
     818:	b9f42bbc 	brlid	r15, 11196	// 33d4 <XIOModule_DiscreteWrite>
     81c:	80000000 	or	r0, r0, r0
     820:	b0000000 	imm	0
     824:	30a08cb0 	addik	r5, r0, -29520	// 8cb0 <iomdle>
     828:	30c00001 	addik	r6, r0, 1
     82c:	10e00000 	addk	r7, r0, r0
     830:	b0000000 	imm	0
     834:	b9f42ba0 	brlid	r15, 11168	// 33d4 <XIOModule_DiscreteWrite>
     838:	80000000 	or	r0, r0, r0
     83c:	b0000000 	imm	0
     840:	30a08cb0 	addik	r5, r0, -29520	// 8cb0 <iomdle>
     844:	30c0001e 	addik	r6, r0, 30
     848:	b0000000 	imm	0
     84c:	b9f42488 	brlid	r15, 9352	// 2cd4 <XIOModule_Enable>
     850:	80000000 	or	r0, r0, r0
     854:	e9e10000 	lwi	r15, r1, 0
     858:	10330000 	addk	r1, r19, r0
     85c:	ea61001c 	lwi	r19, r1, 28
     860:	30210020 	addik	r1, r1, 32
     864:	b60f0008 	rtsd	r15, 8
     868:	80000000 	or	r0, r0, r0

0000086c <resetCounter>:
     86c:	3021ffe0 	addik	r1, r1, -32
     870:	f9e10000 	swi	r15, r1, 0
     874:	fa61001c 	swi	r19, r1, 28
     878:	12610000 	addk	r19, r1, r0
     87c:	b0000000 	imm	0
     880:	30a08cb0 	addik	r5, r0, -29520	// 8cb0 <iomdle>
     884:	30c00001 	addik	r6, r0, 1
     888:	30e00004 	addik	r7, r0, 4
     88c:	b0000000 	imm	0
     890:	b9f42b44 	brlid	r15, 11076	// 33d4 <XIOModule_DiscreteWrite>
     894:	80000000 	or	r0, r0, r0
     898:	b0000000 	imm	0
     89c:	30a08cb0 	addik	r5, r0, -29520	// 8cb0 <iomdle>
     8a0:	30c00001 	addik	r6, r0, 1
     8a4:	10e00000 	addk	r7, r0, r0
     8a8:	b0000000 	imm	0
     8ac:	b9f42b28 	brlid	r15, 11048	// 33d4 <XIOModule_DiscreteWrite>
     8b0:	80000000 	or	r0, r0, r0
     8b4:	e9e10000 	lwi	r15, r1, 0
     8b8:	10330000 	addk	r1, r19, r0
     8bc:	ea61001c 	lwi	r19, r1, 28
     8c0:	30210020 	addik	r1, r1, 32
     8c4:	b60f0008 	rtsd	r15, 8
     8c8:	80000000 	or	r0, r0, r0

000008cc <cleanUp>:
     8cc:	3021ffe0 	addik	r1, r1, -32
     8d0:	f9e10000 	swi	r15, r1, 0
     8d4:	fa61001c 	swi	r19, r1, 28
     8d8:	12610000 	addk	r19, r1, r0
     8dc:	b0000000 	imm	0
     8e0:	b9f416dc 	brlid	r15, 5852	// 1fbc <cleanup_platform>
     8e4:	80000000 	or	r0, r0, r0
     8e8:	e9e10000 	lwi	r15, r1, 0
     8ec:	10330000 	addk	r1, r19, r0
     8f0:	ea61001c 	lwi	r19, r1, 28
     8f4:	30210020 	addik	r1, r1, 32
     8f8:	b60f0008 	rtsd	r15, 8
     8fc:	80000000 	or	r0, r0, r0

00000900 <initSystem>:
     900:	3021ffe0 	addik	r1, r1, -32
     904:	f9e10000 	swi	r15, r1, 0
     908:	fa61001c 	swi	r19, r1, 28
     90c:	12610000 	addk	r19, r1, r0
     910:	b0000000 	imm	0
     914:	b9f41670 	brlid	r15, 5744	// 1f84 <init_platform>
     918:	80000000 	or	r0, r0, r0
     91c:	b0000000 	imm	0
     920:	30a0711c 	addik	r5, r0, 28956
     924:	b0000000 	imm	0
     928:	b9f416c4 	brlid	r15, 5828	// 1fec <print>
     92c:	80000000 	or	r0, r0, r0
     930:	b0000000 	imm	0
     934:	e8608ca0 	lwi	r3, r0, -29536	// 8ca0 <uDevId>
     938:	b0000000 	imm	0
     93c:	a463ffff 	andi	r3, r3, -1
     940:	b0000000 	imm	0
     944:	30a08cb0 	addik	r5, r0, -29520	// 8cb0 <iomdle>
     948:	10c30000 	addk	r6, r3, r0
     94c:	b0000000 	imm	0
     950:	b9f42c68 	brlid	r15, 11368	// 35b8 <XIOModule_Initialize>
     954:	80000000 	or	r0, r0, r0
     958:	b0000000 	imm	0
     95c:	30a08cb0 	addik	r5, r0, -29520	// 8cb0 <iomdle>
     960:	b0000000 	imm	0
     964:	b9f4201c 	brlid	r15, 8220	// 2980 <XIOModule_Start>
     968:	80000000 	or	r0, r0, r0
     96c:	b0000000 	imm	0
     970:	30a08cb0 	addik	r5, r0, -29520	// 8cb0 <iomdle>
     974:	30c00001 	addik	r6, r0, 1
     978:	b0000000 	imm	0
     97c:	b9f4296c 	brlid	r15, 10604	// 32e8 <XIOModule_DiscreteRead>
     980:	80000000 	or	r0, r0, r0
     984:	b0000000 	imm	0
     988:	f8608d60 	swi	r3, r0, -29344	// 8d60 <uGpi1>
     98c:	b0000000 	imm	0
     990:	30a08cb0 	addik	r5, r0, -29520	// 8cb0 <iomdle>
     994:	30c00002 	addik	r6, r0, 2
     998:	b0000000 	imm	0
     99c:	b9f4294c 	brlid	r15, 10572	// 32e8 <XIOModule_DiscreteRead>
     9a0:	80000000 	or	r0, r0, r0
     9a4:	b0000000 	imm	0
     9a8:	f8608d58 	swi	r3, r0, -29352	// 8d58 <uGpi2>
     9ac:	b0000000 	imm	0
     9b0:	30a08cb0 	addik	r5, r0, -29520	// 8cb0 <iomdle>
     9b4:	30c00003 	addik	r6, r0, 3
     9b8:	b0000000 	imm	0
     9bc:	b9f4292c 	brlid	r15, 10540	// 32e8 <XIOModule_DiscreteRead>
     9c0:	80000000 	or	r0, r0, r0
     9c4:	b0000000 	imm	0
     9c8:	f8608cac 	swi	r3, r0, -29524	// 8cac <uGpi3>
     9cc:	b0000000 	imm	0
     9d0:	30a08cb0 	addik	r5, r0, -29520	// 8cb0 <iomdle>
     9d4:	30c00004 	addik	r6, r0, 4
     9d8:	b0000000 	imm	0
     9dc:	b9f4290c 	brlid	r15, 10508	// 32e8 <XIOModule_DiscreteRead>
     9e0:	80000000 	or	r0, r0, r0
     9e4:	b0000000 	imm	0
     9e8:	f8608d54 	swi	r3, r0, -29356	// 8d54 <uGpi4>
     9ec:	b0000000 	imm	0
     9f0:	30a08cb0 	addik	r5, r0, -29520	// 8cb0 <iomdle>
     9f4:	30c00001 	addik	r6, r0, 1
     9f8:	10e00000 	addk	r7, r0, r0
     9fc:	b0000000 	imm	0
     a00:	b9f429d4 	brlid	r15, 10708	// 33d4 <XIOModule_DiscreteWrite>
     a04:	80000000 	or	r0, r0, r0
     a08:	b0000000 	imm	0
     a0c:	30a08cb0 	addik	r5, r0, -29520	// 8cb0 <iomdle>
     a10:	30c00007 	addik	r6, r0, 7
     a14:	b0000000 	imm	0
     a18:	30e00258 	addik	r7, r0, 600	// 258 <oneSecondInterruptRoutine>
     a1c:	11000000 	addk	r8, r0, r0
     a20:	b0000000 	imm	0
     a24:	b9f4207c 	brlid	r15, 8316	// 2aa0 <XIOModule_Connect>
     a28:	80000000 	or	r0, r0, r0
     a2c:	b0000000 	imm	0
     a30:	30a08cb0 	addik	r5, r0, -29520	// 8cb0 <iomdle>
     a34:	30c00007 	addik	r6, r0, 7
     a38:	b0000000 	imm	0
     a3c:	b9f42298 	brlid	r15, 8856	// 2cd4 <XIOModule_Enable>
     a40:	80000000 	or	r0, r0, r0
     a44:	b0000000 	imm	0
     a48:	30a08cb0 	addik	r5, r0, -29520	// 8cb0 <iomdle>
     a4c:	30c00008 	addik	r6, r0, 8	// 8 <_vector_sw_exception>
     a50:	b0000000 	imm	0
     a54:	30e004bc 	addik	r7, r0, 1212	// 4bc <oneMillisecondInterruptRoutine>
     a58:	11000000 	addk	r8, r0, r0
     a5c:	b0000000 	imm	0
     a60:	b9f42040 	brlid	r15, 8256	// 2aa0 <XIOModule_Connect>
     a64:	80000000 	or	r0, r0, r0
     a68:	b0000000 	imm	0
     a6c:	30a08cb0 	addik	r5, r0, -29520	// 8cb0 <iomdle>
     a70:	30c00008 	addik	r6, r0, 8	// 8 <_vector_sw_exception>
     a74:	b0000000 	imm	0
     a78:	b9f4225c 	brlid	r15, 8796	// 2cd4 <XIOModule_Enable>
     a7c:	80000000 	or	r0, r0, r0
     a80:	b0000000 	imm	0
     a84:	30a08cb0 	addik	r5, r0, -29520	// 8cb0 <iomdle>
     a88:	30c0001e 	addik	r6, r0, 30
     a8c:	b0000000 	imm	0
     a90:	30e0053c 	addik	r7, r0, 1340	// 53c <errorObservationInterruptRoutine>
     a94:	11000000 	addk	r8, r0, r0
     a98:	b0000000 	imm	0
     a9c:	b9f42004 	brlid	r15, 8196	// 2aa0 <XIOModule_Connect>
     aa0:	80000000 	or	r0, r0, r0
     aa4:	b0000000 	imm	0
     aa8:	30a08cb0 	addik	r5, r0, -29520	// 8cb0 <iomdle>
     aac:	30c0001f 	addik	r6, r0, 31
     ab0:	b0000000 	imm	0
     ab4:	30e005f8 	addik	r7, r0, 1528	// 5f8 <measureFrequencyInterruptRoutine>
     ab8:	11000000 	addk	r8, r0, r0
     abc:	b0000000 	imm	0
     ac0:	b9f41fe0 	brlid	r15, 8160	// 2aa0 <XIOModule_Connect>
     ac4:	80000000 	or	r0, r0, r0
     ac8:	b0000000 	imm	0
     acc:	30a08cb0 	addik	r5, r0, -29520	// 8cb0 <iomdle>
     ad0:	30c0001f 	addik	r6, r0, 31
     ad4:	b0000000 	imm	0
     ad8:	b9f421fc 	brlid	r15, 8700	// 2cd4 <XIOModule_Enable>
     adc:	80000000 	or	r0, r0, r0
     ae0:	b0000000 	imm	0
     ae4:	e8608ca0 	lwi	r3, r0, -29536	// 8ca0 <uDevId>
     ae8:	b0000000 	imm	0
     aec:	30a04304 	addik	r5, r0, 17156	// 4304 <XIOModule_DeviceInterruptHandler>
     af0:	10c30000 	addk	r6, r3, r0
     af4:	b0000000 	imm	0
     af8:	b9f41d8c 	brlid	r15, 7564	// 2884 <microblaze_register_handler>
     afc:	80000000 	or	r0, r0, r0
     b00:	b0000000 	imm	0
     b04:	b9f41cbc 	brlid	r15, 7356	// 27c0 <microblaze_enable_interrupts>
     b08:	80000000 	or	r0, r0, r0
     b0c:	e9e10000 	lwi	r15, r1, 0
     b10:	10330000 	addk	r1, r19, r0
     b14:	ea61001c 	lwi	r19, r1, 28
     b18:	30210020 	addik	r1, r1, 32
     b1c:	b60f0008 	rtsd	r15, 8
     b20:	80000000 	or	r0, r0, r0

00000b24 <initFrequency>:
     b24:	3021ffe0 	addik	r1, r1, -32
     b28:	f9e10000 	swi	r15, r1, 0
     b2c:	fa61001c 	swi	r19, r1, 28
     b30:	12610000 	addk	r19, r1, r0
     b34:	b0000000 	imm	0
     b38:	30a08cb0 	addik	r5, r0, -29520	// 8cb0 <iomdle>
     b3c:	30c00001 	addik	r6, r0, 1
     b40:	30e00002 	addik	r7, r0, 2
     b44:	b0000000 	imm	0
     b48:	b9f4288c 	brlid	r15, 10380	// 33d4 <XIOModule_DiscreteWrite>
     b4c:	80000000 	or	r0, r0, r0
     b50:	b0000000 	imm	0
     b54:	e86076b4 	lwi	r3, r0, 30388	// 76b4 <series_index>
     b58:	10631800 	addk	r3, r3, r3
     b5c:	10631800 	addk	r3, r3, r3
     b60:	b0000000 	imm	0
     b64:	306376cc 	addik	r3, r3, 30412
     b68:	e8630000 	lwi	r3, r3, 0
     b6c:	10a30000 	addk	r5, r3, r0
     b70:	b9f4074c 	brlid	r15, 1868	// 12bc <setMultiplier>
     b74:	80000000 	or	r0, r0, r0
     b78:	b0000000 	imm	0
     b7c:	e86076b4 	lwi	r3, r0, 30388	// 76b4 <series_index>
     b80:	10631800 	addk	r3, r3, r3
     b84:	10631800 	addk	r3, r3, r3
     b88:	b0000000 	imm	0
     b8c:	30637d1c 	addik	r3, r3, 32028
     b90:	e8630000 	lwi	r3, r3, 0
     b94:	10a30000 	addk	r5, r3, r0
     b98:	b9f40230 	brlid	r15, 560	// dc8 <setDivider>
     b9c:	80000000 	or	r0, r0, r0
     ba0:	b0000000 	imm	0
     ba4:	e86076b4 	lwi	r3, r0, 30388	// 76b4 <series_index>
     ba8:	10631800 	addk	r3, r3, r3
     bac:	10631800 	addk	r3, r3, r3
     bb0:	b0000000 	imm	0
     bb4:	3063836c 	addik	r3, r3, -31892
     bb8:	e8630000 	lwi	r3, r3, 0
     bbc:	10a30000 	addk	r5, r3, r0
     bc0:	b9f40ca4 	brlid	r15, 3236	// 1864 <setDividerOutput1>
     bc4:	80000000 	or	r0, r0, r0
     bc8:	b0000000 	imm	0
     bcc:	30a08cb0 	addik	r5, r0, -29520	// 8cb0 <iomdle>
     bd0:	30c00001 	addik	r6, r0, 1
     bd4:	10e00000 	addk	r7, r0, r0
     bd8:	b0000000 	imm	0
     bdc:	b9f427f8 	brlid	r15, 10232	// 33d4 <XIOModule_DiscreteWrite>
     be0:	80000000 	or	r0, r0, r0
     be4:	e9e10000 	lwi	r15, r1, 0
     be8:	10330000 	addk	r1, r19, r0
     bec:	ea61001c 	lwi	r19, r1, 28
     bf0:	30210020 	addik	r1, r1, 32
     bf4:	b60f0008 	rtsd	r15, 8
     bf8:	80000000 	or	r0, r0, r0

00000bfc <increaseFrequency>:
     bfc:	3021ffe0 	addik	r1, r1, -32
     c00:	f9e10000 	swi	r15, r1, 0
     c04:	fa61001c 	swi	r19, r1, 28
     c08:	12610000 	addk	r19, r1, r0
     c0c:	b0000000 	imm	0
     c10:	e86076b4 	lwi	r3, r0, 30388	// 76b4 <series_index>
     c14:	30630001 	addik	r3, r3, 1
     c18:	b0000000 	imm	0
     c1c:	f86076b4 	swi	r3, r0, 30388	// 76b4 <series_index>
     c20:	b0000000 	imm	0
     c24:	e86076b4 	lwi	r3, r0, 30388	// 76b4 <series_index>
     c28:	10830000 	addk	r4, r3, r0
     c2c:	30600193 	addik	r3, r0, 403
     c30:	16441803 	cmpu	r18, r4, r3
     c34:	bcb2000c 	bgei	r18, 12		// c40
     c38:	b0000000 	imm	0
     c3c:	f80076b4 	swi	r0, r0, 30388	// 76b4 <series_index>
     c40:	b0000000 	imm	0
     c44:	e86076b4 	lwi	r3, r0, 30388	// 76b4 <series_index>
     c48:	a86300d7 	xori	r3, r3, 215
     c4c:	bc23000c 	bnei	r3, 12		// c58
     c50:	b0000000 	imm	0
     c54:	f80076b4 	swi	r0, r0, 30388	// 76b4 <series_index>
     c58:	b0000000 	imm	0
     c5c:	30a08cb0 	addik	r5, r0, -29520	// 8cb0 <iomdle>
     c60:	30c00001 	addik	r6, r0, 1
     c64:	30e00002 	addik	r7, r0, 2
     c68:	b0000000 	imm	0
     c6c:	b9f42768 	brlid	r15, 10088	// 33d4 <XIOModule_DiscreteWrite>
     c70:	80000000 	or	r0, r0, r0
     c74:	b0000000 	imm	0
     c78:	e86076b4 	lwi	r3, r0, 30388	// 76b4 <series_index>
     c7c:	10631800 	addk	r3, r3, r3
     c80:	10631800 	addk	r3, r3, r3
     c84:	b0000000 	imm	0
     c88:	306376cc 	addik	r3, r3, 30412
     c8c:	e8630000 	lwi	r3, r3, 0
     c90:	10a30000 	addk	r5, r3, r0
     c94:	b9f40628 	brlid	r15, 1576	// 12bc <setMultiplier>
     c98:	80000000 	or	r0, r0, r0
     c9c:	b0000000 	imm	0
     ca0:	e86076b4 	lwi	r3, r0, 30388	// 76b4 <series_index>
     ca4:	10631800 	addk	r3, r3, r3
     ca8:	10631800 	addk	r3, r3, r3
     cac:	b0000000 	imm	0
     cb0:	30637d1c 	addik	r3, r3, 32028
     cb4:	e8630000 	lwi	r3, r3, 0
     cb8:	10a30000 	addk	r5, r3, r0
     cbc:	b9f4010c 	brlid	r15, 268	// dc8 <setDivider>
     cc0:	80000000 	or	r0, r0, r0
     cc4:	b0000000 	imm	0
     cc8:	e86076b4 	lwi	r3, r0, 30388	// 76b4 <series_index>
     ccc:	10631800 	addk	r3, r3, r3
     cd0:	10631800 	addk	r3, r3, r3
     cd4:	b0000000 	imm	0
     cd8:	3063836c 	addik	r3, r3, -31892
     cdc:	e8630000 	lwi	r3, r3, 0
     ce0:	10a30000 	addk	r5, r3, r0
     ce4:	b9f40b80 	brlid	r15, 2944	// 1864 <setDividerOutput1>
     ce8:	80000000 	or	r0, r0, r0
     cec:	b0000000 	imm	0
     cf0:	30a08cb0 	addik	r5, r0, -29520	// 8cb0 <iomdle>
     cf4:	30c00001 	addik	r6, r0, 1
     cf8:	10e00000 	addk	r7, r0, r0
     cfc:	b0000000 	imm	0
     d00:	b9f426d4 	brlid	r15, 9940	// 33d4 <XIOModule_DiscreteWrite>
     d04:	80000000 	or	r0, r0, r0
     d08:	b0000000 	imm	0
     d0c:	f8008c94 	swi	r0, r0, -29548	// 8c94 <second>
     d10:	e9e10000 	lwi	r15, r1, 0
     d14:	10330000 	addk	r1, r19, r0
     d18:	ea61001c 	lwi	r19, r1, 28
     d1c:	30210020 	addik	r1, r1, 32
     d20:	b60f0008 	rtsd	r15, 8
     d24:	80000000 	or	r0, r0, r0

00000d28 <setValue>:
     d28:	3021fff8 	addik	r1, r1, -8
     d2c:	fa610004 	swi	r19, r1, 4
     d30:	12610000 	addk	r19, r1, r0
     d34:	f8b3000c 	swi	r5, r19, 12
     d38:	f8d30010 	swi	r6, r19, 16
     d3c:	f8f30014 	swi	r7, r19, 20
     d40:	e873000c 	lwi	r3, r19, 12
     d44:	b0000000 	imm	0
     d48:	a463ffff 	andi	r3, r3, -1
     d4c:	10830000 	addk	r4, r3, r0
     d50:	10632000 	addk	r3, r3, r4
     d54:	10830000 	addk	r4, r3, r0
     d58:	10632000 	addk	r3, r3, r4
     d5c:	10830000 	addk	r4, r3, r0
     d60:	10632000 	addk	r3, r3, r4
     d64:	10830000 	addk	r4, r3, r0
     d68:	10632000 	addk	r3, r3, r4
     d6c:	10830000 	addk	r4, r3, r0
     d70:	10632000 	addk	r3, r3, r4
     d74:	10830000 	addk	r4, r3, r0
     d78:	10632000 	addk	r3, r3, r4
     d7c:	b0000000 	imm	0
     d80:	a483ffff 	andi	r4, r3, -1
     d84:	e8730010 	lwi	r3, r19, 16
     d88:	b0000000 	imm	0
     d8c:	a463ffff 	andi	r3, r3, -1
     d90:	10641800 	addk	r3, r4, r3
     d94:	b0000000 	imm	0
     d98:	a463ffff 	andi	r3, r3, -1
     d9c:	30631000 	addik	r3, r3, 4096
     da0:	b0000000 	imm	0
     da4:	a463ffff 	andi	r3, r3, -1
     da8:	90830061 	sext16	r4, r3
     dac:	e8730014 	lwi	r3, r19, 20
     db0:	f4830000 	shi	r4, r3, 0
     db4:	10330000 	addk	r1, r19, r0
     db8:	ea610004 	lwi	r19, r1, 4
     dbc:	30210008 	addik	r1, r1, 8
     dc0:	b60f0008 	rtsd	r15, 8
     dc4:	80000000 	or	r0, r0, r0

00000dc8 <setDivider>:
     dc8:	3021ffd4 	addik	r1, r1, -44
     dcc:	f9e10000 	swi	r15, r1, 0
     dd0:	fa610028 	swi	r19, r1, 40
     dd4:	12610000 	addk	r19, r1, r0
     dd8:	f8b30030 	swi	r5, r19, 48
     ddc:	b0000000 	imm	0
     de0:	b9f41990 	brlid	r15, 6544	// 2770 <microblaze_disable_interrupts>
     de4:	80000000 	or	r0, r0, r0
     de8:	b0000000 	imm	0
     dec:	e86089cc 	lwi	r3, r0, -30260	// 89cc <pMMCMd1>
     df0:	e4630000 	lhui	r3, r3, 0
     df4:	f473001c 	shi	r3, r19, 28
     df8:	f8130020 	swi	r0, r19, 32
     dfc:	e8730030 	lwi	r3, r19, 48
     e00:	a8630001 	xori	r3, r3, 1
     e04:	bc230040 	bnei	r3, 64		// e44
     e08:	3060efff 	addik	r3, r0, -4097
     e0c:	f4730024 	shi	r3, r19, 36
     e10:	e493001c 	lhui	r4, r19, 28
     e14:	e4730024 	lhui	r3, r19, 36
     e18:	84641800 	and	r3, r4, r3
     e1c:	f473001c 	shi	r3, r19, 28
     e20:	e473001c 	lhui	r3, r19, 28
     e24:	a0631000 	ori	r3, r3, 4096
     e28:	f473001c 	shi	r3, r19, 28
     e2c:	b0000000 	imm	0
     e30:	e86089cc 	lwi	r3, r0, -30260	// 89cc <pMMCMd1>
     e34:	e493001c 	lhui	r4, r19, 28
     e38:	f4830000 	shi	r4, r3, 0
     e3c:	30600001 	addik	r3, r0, 1
     e40:	f8730020 	swi	r3, r19, 32
     e44:	e8730030 	lwi	r3, r19, 48
     e48:	a4630001 	andi	r3, r3, 1
     e4c:	bc2301b8 	bnei	r3, 440		// 1004
     e50:	3060c000 	addik	r3, r0, -16384
     e54:	f4730024 	shi	r3, r19, 36
     e58:	e493001c 	lhui	r4, r19, 28
     e5c:	e4730024 	lhui	r3, r19, 36
     e60:	84641800 	and	r3, r4, r3
     e64:	f473001c 	shi	r3, r19, 28
     e68:	e8730030 	lwi	r3, r19, 48
     e6c:	10801800 	addk	r4, r0, r3
     e70:	90830041 	srl	r4, r3
     e74:	90840041 	srl	r4, r4
     e78:	90840041 	srl	r4, r4
     e7c:	90840041 	srl	r4, r4
     e80:	90840041 	srl	r4, r4
     e84:	90840041 	srl	r4, r4
     e88:	90840041 	srl	r4, r4
     e8c:	90840041 	srl	r4, r4
     e90:	90840041 	srl	r4, r4
     e94:	90840041 	srl	r4, r4
     e98:	90840041 	srl	r4, r4
     e9c:	90840041 	srl	r4, r4
     ea0:	90840041 	srl	r4, r4
     ea4:	90840041 	srl	r4, r4
     ea8:	90840041 	srl	r4, r4
     eac:	90840041 	srl	r4, r4
     eb0:	90840041 	srl	r4, r4
     eb4:	90840041 	srl	r4, r4
     eb8:	90840041 	srl	r4, r4
     ebc:	90840041 	srl	r4, r4
     ec0:	90840041 	srl	r4, r4
     ec4:	90840041 	srl	r4, r4
     ec8:	90840041 	srl	r4, r4
     ecc:	90840041 	srl	r4, r4
     ed0:	90840041 	srl	r4, r4
     ed4:	90840041 	srl	r4, r4
     ed8:	90840041 	srl	r4, r4
     edc:	90840041 	srl	r4, r4
     ee0:	90840041 	srl	r4, r4
     ee4:	90840041 	srl	r4, r4
     ee8:	90840041 	srl	r4, r4
     eec:	10641800 	addk	r3, r4, r3
     ef0:	90630001 	sra	r3, r3
     ef4:	b0000000 	imm	0
     ef8:	a463ffff 	andi	r3, r3, -1
     efc:	10830000 	addk	r4, r3, r0
     f00:	10632000 	addk	r3, r3, r4
     f04:	10830000 	addk	r4, r3, r0
     f08:	10632000 	addk	r3, r3, r4
     f0c:	10830000 	addk	r4, r3, r0
     f10:	10632000 	addk	r3, r3, r4
     f14:	10830000 	addk	r4, r3, r0
     f18:	10632000 	addk	r3, r3, r4
     f1c:	10830000 	addk	r4, r3, r0
     f20:	10632000 	addk	r3, r3, r4
     f24:	10830000 	addk	r4, r3, r0
     f28:	10632000 	addk	r3, r3, r4
     f2c:	b0000000 	imm	0
     f30:	a483ffff 	andi	r4, r3, -1
     f34:	e8730030 	lwi	r3, r19, 48
     f38:	10a01800 	addk	r5, r0, r3
     f3c:	90a30041 	srl	r5, r3
     f40:	90a50041 	srl	r5, r5
     f44:	90a50041 	srl	r5, r5
     f48:	90a50041 	srl	r5, r5
     f4c:	90a50041 	srl	r5, r5
     f50:	90a50041 	srl	r5, r5
     f54:	90a50041 	srl	r5, r5
     f58:	90a50041 	srl	r5, r5
     f5c:	90a50041 	srl	r5, r5
     f60:	90a50041 	srl	r5, r5
     f64:	90a50041 	srl	r5, r5
     f68:	90a50041 	srl	r5, r5
     f6c:	90a50041 	srl	r5, r5
     f70:	90a50041 	srl	r5, r5
     f74:	90a50041 	srl	r5, r5
     f78:	90a50041 	srl	r5, r5
     f7c:	90a50041 	srl	r5, r5
     f80:	90a50041 	srl	r5, r5
     f84:	90a50041 	srl	r5, r5
     f88:	90a50041 	srl	r5, r5
     f8c:	90a50041 	srl	r5, r5
     f90:	90a50041 	srl	r5, r5
     f94:	90a50041 	srl	r5, r5
     f98:	90a50041 	srl	r5, r5
     f9c:	90a50041 	srl	r5, r5
     fa0:	90a50041 	srl	r5, r5
     fa4:	90a50041 	srl	r5, r5
     fa8:	90a50041 	srl	r5, r5
     fac:	90a50041 	srl	r5, r5
     fb0:	90a50041 	srl	r5, r5
     fb4:	90a50041 	srl	r5, r5
     fb8:	10651800 	addk	r3, r5, r3
     fbc:	90630001 	sra	r3, r3
     fc0:	b0000000 	imm	0
     fc4:	a463ffff 	andi	r3, r3, -1
     fc8:	10641800 	addk	r3, r4, r3
     fcc:	b0000000 	imm	0
     fd0:	a463ffff 	andi	r3, r3, -1
     fd4:	90830061 	sext16	r4, r3
     fd8:	e473001c 	lhui	r3, r19, 28
     fdc:	90630061 	sext16	r3, r3
     fe0:	80641800 	or	r3, r4, r3
     fe4:	90630061 	sext16	r3, r3
     fe8:	f473001c 	shi	r3, r19, 28
     fec:	b0000000 	imm	0
     ff0:	e86089cc 	lwi	r3, r0, -30260	// 89cc <pMMCMd1>
     ff4:	e493001c 	lhui	r4, r19, 28
     ff8:	f4830000 	shi	r4, r3, 0
     ffc:	30600002 	addik	r3, r0, 2
    1000:	f8730020 	swi	r3, r19, 32
    1004:	e8930030 	lwi	r4, r19, 48
    1008:	10602000 	addk	r3, r0, r4
    100c:	90640001 	sra	r3, r4
    1010:	90630001 	sra	r3, r3
    1014:	90630001 	sra	r3, r3
    1018:	90630001 	sra	r3, r3
    101c:	90630001 	sra	r3, r3
    1020:	90630001 	sra	r3, r3
    1024:	90630001 	sra	r3, r3
    1028:	90630001 	sra	r3, r3
    102c:	90630001 	sra	r3, r3
    1030:	90630001 	sra	r3, r3
    1034:	90630001 	sra	r3, r3
    1038:	90630001 	sra	r3, r3
    103c:	90630001 	sra	r3, r3
    1040:	90630001 	sra	r3, r3
    1044:	90630001 	sra	r3, r3
    1048:	90630001 	sra	r3, r3
    104c:	90630001 	sra	r3, r3
    1050:	90630001 	sra	r3, r3
    1054:	90630001 	sra	r3, r3
    1058:	90630001 	sra	r3, r3
    105c:	90630001 	sra	r3, r3
    1060:	90630001 	sra	r3, r3
    1064:	90630001 	sra	r3, r3
    1068:	90630001 	sra	r3, r3
    106c:	90630001 	sra	r3, r3
    1070:	90630001 	sra	r3, r3
    1074:	90630001 	sra	r3, r3
    1078:	90630001 	sra	r3, r3
    107c:	90630001 	sra	r3, r3
    1080:	90630001 	sra	r3, r3
    1084:	90630001 	sra	r3, r3
    1088:	88841800 	xor	r4, r4, r3
    108c:	14832000 	rsubk	r4, r3, r4
    1090:	a4840001 	andi	r4, r4, 1
    1094:	88841800 	xor	r4, r4, r3
    1098:	14632000 	rsubk	r3, r3, r4
    109c:	a8630001 	xori	r3, r3, 1
    10a0:	bc2301d0 	bnei	r3, 464		// 1270
    10a4:	e8730030 	lwi	r3, r19, 48
    10a8:	a8630001 	xori	r3, r3, 1
    10ac:	bc0301c4 	beqi	r3, 452		// 1270
    10b0:	3060c000 	addik	r3, r0, -16384
    10b4:	f4730024 	shi	r3, r19, 36
    10b8:	e493001c 	lhui	r4, r19, 28
    10bc:	e4730024 	lhui	r3, r19, 36
    10c0:	84641800 	and	r3, r4, r3
    10c4:	f473001c 	shi	r3, r19, 28
    10c8:	e8730030 	lwi	r3, r19, 48
    10cc:	10801800 	addk	r4, r0, r3
    10d0:	90830041 	srl	r4, r3
    10d4:	90840041 	srl	r4, r4
    10d8:	90840041 	srl	r4, r4
    10dc:	90840041 	srl	r4, r4
    10e0:	90840041 	srl	r4, r4
    10e4:	90840041 	srl	r4, r4
    10e8:	90840041 	srl	r4, r4
    10ec:	90840041 	srl	r4, r4
    10f0:	90840041 	srl	r4, r4
    10f4:	90840041 	srl	r4, r4
    10f8:	90840041 	srl	r4, r4
    10fc:	90840041 	srl	r4, r4
    1100:	90840041 	srl	r4, r4
    1104:	90840041 	srl	r4, r4
    1108:	90840041 	srl	r4, r4
    110c:	90840041 	srl	r4, r4
    1110:	90840041 	srl	r4, r4
    1114:	90840041 	srl	r4, r4
    1118:	90840041 	srl	r4, r4
    111c:	90840041 	srl	r4, r4
    1120:	90840041 	srl	r4, r4
    1124:	90840041 	srl	r4, r4
    1128:	90840041 	srl	r4, r4
    112c:	90840041 	srl	r4, r4
    1130:	90840041 	srl	r4, r4
    1134:	90840041 	srl	r4, r4
    1138:	90840041 	srl	r4, r4
    113c:	90840041 	srl	r4, r4
    1140:	90840041 	srl	r4, r4
    1144:	90840041 	srl	r4, r4
    1148:	90840041 	srl	r4, r4
    114c:	10641800 	addk	r3, r4, r3
    1150:	90630001 	sra	r3, r3
    1154:	b0000000 	imm	0
    1158:	a463ffff 	andi	r3, r3, -1
    115c:	10830000 	addk	r4, r3, r0
    1160:	10632000 	addk	r3, r3, r4
    1164:	10830000 	addk	r4, r3, r0
    1168:	10632000 	addk	r3, r3, r4
    116c:	10830000 	addk	r4, r3, r0
    1170:	10632000 	addk	r3, r3, r4
    1174:	10830000 	addk	r4, r3, r0
    1178:	10632000 	addk	r3, r3, r4
    117c:	10830000 	addk	r4, r3, r0
    1180:	10632000 	addk	r3, r3, r4
    1184:	10830000 	addk	r4, r3, r0
    1188:	10632000 	addk	r3, r3, r4
    118c:	b0000000 	imm	0
    1190:	a483ffff 	andi	r4, r3, -1
    1194:	e8730030 	lwi	r3, r19, 48
    1198:	10a01800 	addk	r5, r0, r3
    119c:	90a30041 	srl	r5, r3
    11a0:	90a50041 	srl	r5, r5
    11a4:	90a50041 	srl	r5, r5
    11a8:	90a50041 	srl	r5, r5
    11ac:	90a50041 	srl	r5, r5
    11b0:	90a50041 	srl	r5, r5
    11b4:	90a50041 	srl	r5, r5
    11b8:	90a50041 	srl	r5, r5
    11bc:	90a50041 	srl	r5, r5
    11c0:	90a50041 	srl	r5, r5
    11c4:	90a50041 	srl	r5, r5
    11c8:	90a50041 	srl	r5, r5
    11cc:	90a50041 	srl	r5, r5
    11d0:	90a50041 	srl	r5, r5
    11d4:	90a50041 	srl	r5, r5
    11d8:	90a50041 	srl	r5, r5
    11dc:	90a50041 	srl	r5, r5
    11e0:	90a50041 	srl	r5, r5
    11e4:	90a50041 	srl	r5, r5
    11e8:	90a50041 	srl	r5, r5
    11ec:	90a50041 	srl	r5, r5
    11f0:	90a50041 	srl	r5, r5
    11f4:	90a50041 	srl	r5, r5
    11f8:	90a50041 	srl	r5, r5
    11fc:	90a50041 	srl	r5, r5
    1200:	90a50041 	srl	r5, r5
    1204:	90a50041 	srl	r5, r5
    1208:	90a50041 	srl	r5, r5
    120c:	90a50041 	srl	r5, r5
    1210:	90a50041 	srl	r5, r5
    1214:	90a50041 	srl	r5, r5
    1218:	10651800 	addk	r3, r5, r3
    121c:	90630001 	sra	r3, r3
    1220:	b0000000 	imm	0
    1224:	a463ffff 	andi	r3, r3, -1
    1228:	10641800 	addk	r3, r4, r3
    122c:	b0000000 	imm	0
    1230:	a463ffff 	andi	r3, r3, -1
    1234:	30632001 	addik	r3, r3, 8193
    1238:	b0000000 	imm	0
    123c:	a463ffff 	andi	r3, r3, -1
    1240:	90830061 	sext16	r4, r3
    1244:	e473001c 	lhui	r3, r19, 28
    1248:	90630061 	sext16	r3, r3
    124c:	80641800 	or	r3, r4, r3
    1250:	90630061 	sext16	r3, r3
    1254:	f473001c 	shi	r3, r19, 28
    1258:	b0000000 	imm	0
    125c:	e86089cc 	lwi	r3, r0, -30260	// 89cc <pMMCMd1>
    1260:	e493001c 	lhui	r4, r19, 28
    1264:	f4830000 	shi	r4, r3, 0
    1268:	30600003 	addik	r3, r0, 3
    126c:	f8730020 	swi	r3, r19, 32
    1270:	b8220004 	mbar	1
    1274:	b8420004 	mbar	2
    1278:	e473001c 	lhui	r3, r19, 28
    127c:	b0000000 	imm	0
    1280:	30a07130 	addik	r5, r0, 28976
    1284:	10c30000 	addk	r6, r3, r0
    1288:	b0000000 	imm	0
    128c:	b9f41024 	brlid	r15, 4132	// 22b0 <xil_printf>
    1290:	80000000 	or	r0, r0, r0
    1294:	b0000000 	imm	0
    1298:	b9f41528 	brlid	r15, 5416	// 27c0 <microblaze_enable_interrupts>
    129c:	80000000 	or	r0, r0, r0
    12a0:	e8730020 	lwi	r3, r19, 32
    12a4:	e9e10000 	lwi	r15, r1, 0
    12a8:	10330000 	addk	r1, r19, r0
    12ac:	ea610028 	lwi	r19, r1, 40
    12b0:	3021002c 	addik	r1, r1, 44
    12b4:	b60f0008 	rtsd	r15, 8
    12b8:	80000000 	or	r0, r0, r0

000012bc <setMultiplier>:
    12bc:	3021ffd4 	addik	r1, r1, -44
    12c0:	f9e10000 	swi	r15, r1, 0
    12c4:	fa610028 	swi	r19, r1, 40
    12c8:	12610000 	addk	r19, r1, r0
    12cc:	f8b30030 	swi	r5, r19, 48
    12d0:	b0000000 	imm	0
    12d4:	b9f4149c 	brlid	r15, 5276	// 2770 <microblaze_disable_interrupts>
    12d8:	80000000 	or	r0, r0, r0
    12dc:	b0000000 	imm	0
    12e0:	e86089c4 	lwi	r3, r0, -30268	// 89c4 <pMMCMm1>
    12e4:	e4630000 	lhui	r3, r3, 0
    12e8:	f473001c 	shi	r3, r19, 28
    12ec:	b0000000 	imm	0
    12f0:	e86089c8 	lwi	r3, r0, -30264	// 89c8 <pMMCMm2>
    12f4:	e4630000 	lhui	r3, r3, 0
    12f8:	f473001e 	shi	r3, r19, 30
    12fc:	f8130020 	swi	r0, r19, 32
    1300:	e8730030 	lwi	r3, r19, 48
    1304:	a8630001 	xori	r3, r3, 1
    1308:	bc230070 	bnei	r3, 112		// 1378
    130c:	3060f000 	addik	r3, r0, -4096
    1310:	f4730024 	shi	r3, r19, 36
    1314:	e493001c 	lhui	r4, r19, 28
    1318:	e4730024 	lhui	r3, r19, 36
    131c:	84641800 	and	r3, r4, r3
    1320:	f473001c 	shi	r3, r19, 28
    1324:	b0000000 	imm	0
    1328:	e86089c4 	lwi	r3, r0, -30268	// 89c4 <pMMCMm1>
    132c:	e493001c 	lhui	r4, r19, 28
    1330:	f4830000 	shi	r4, r3, 0
    1334:	b8220004 	mbar	1
    1338:	b8420004 	mbar	2
    133c:	3060ff3f 	addik	r3, r0, -193
    1340:	f4730024 	shi	r3, r19, 36
    1344:	e493001e 	lhui	r4, r19, 30
    1348:	e4730024 	lhui	r3, r19, 36
    134c:	84641800 	and	r3, r4, r3
    1350:	f473001e 	shi	r3, r19, 30
    1354:	e473001e 	lhui	r3, r19, 30
    1358:	a0630040 	ori	r3, r3, 64
    135c:	f473001e 	shi	r3, r19, 30
    1360:	b0000000 	imm	0
    1364:	e86089c8 	lwi	r3, r0, -30264	// 89c8 <pMMCMm2>
    1368:	e493001e 	lhui	r4, r19, 30
    136c:	f4830000 	shi	r4, r3, 0
    1370:	30600001 	addik	r3, r0, 1
    1374:	f8730020 	swi	r3, r19, 32
    1378:	e8730030 	lwi	r3, r19, 48
    137c:	a4630001 	andi	r3, r3, 1
    1380:	bc2301e8 	bnei	r3, 488		// 1568
    1384:	3060f000 	addik	r3, r0, -4096
    1388:	f4730024 	shi	r3, r19, 36
    138c:	e493001c 	lhui	r4, r19, 28
    1390:	e4730024 	lhui	r3, r19, 36
    1394:	84641800 	and	r3, r4, r3
    1398:	f473001c 	shi	r3, r19, 28
    139c:	e8730030 	lwi	r3, r19, 48
    13a0:	10801800 	addk	r4, r0, r3
    13a4:	90830041 	srl	r4, r3
    13a8:	90840041 	srl	r4, r4
    13ac:	90840041 	srl	r4, r4
    13b0:	90840041 	srl	r4, r4
    13b4:	90840041 	srl	r4, r4
    13b8:	90840041 	srl	r4, r4
    13bc:	90840041 	srl	r4, r4
    13c0:	90840041 	srl	r4, r4
    13c4:	90840041 	srl	r4, r4
    13c8:	90840041 	srl	r4, r4
    13cc:	90840041 	srl	r4, r4
    13d0:	90840041 	srl	r4, r4
    13d4:	90840041 	srl	r4, r4
    13d8:	90840041 	srl	r4, r4
    13dc:	90840041 	srl	r4, r4
    13e0:	90840041 	srl	r4, r4
    13e4:	90840041 	srl	r4, r4
    13e8:	90840041 	srl	r4, r4
    13ec:	90840041 	srl	r4, r4
    13f0:	90840041 	srl	r4, r4
    13f4:	90840041 	srl	r4, r4
    13f8:	90840041 	srl	r4, r4
    13fc:	90840041 	srl	r4, r4
    1400:	90840041 	srl	r4, r4
    1404:	90840041 	srl	r4, r4
    1408:	90840041 	srl	r4, r4
    140c:	90840041 	srl	r4, r4
    1410:	90840041 	srl	r4, r4
    1414:	90840041 	srl	r4, r4
    1418:	90840041 	srl	r4, r4
    141c:	90840041 	srl	r4, r4
    1420:	10641800 	addk	r3, r4, r3
    1424:	90630001 	sra	r3, r3
    1428:	b0000000 	imm	0
    142c:	a463ffff 	andi	r3, r3, -1
    1430:	10830000 	addk	r4, r3, r0
    1434:	10632000 	addk	r3, r3, r4
    1438:	10830000 	addk	r4, r3, r0
    143c:	10632000 	addk	r3, r3, r4
    1440:	10830000 	addk	r4, r3, r0
    1444:	10632000 	addk	r3, r3, r4
    1448:	10830000 	addk	r4, r3, r0
    144c:	10632000 	addk	r3, r3, r4
    1450:	10830000 	addk	r4, r3, r0
    1454:	10632000 	addk	r3, r3, r4
    1458:	10830000 	addk	r4, r3, r0
    145c:	10632000 	addk	r3, r3, r4
    1460:	b0000000 	imm	0
    1464:	a483ffff 	andi	r4, r3, -1
    1468:	e8730030 	lwi	r3, r19, 48
    146c:	10a01800 	addk	r5, r0, r3
    1470:	90a30041 	srl	r5, r3
    1474:	90a50041 	srl	r5, r5
    1478:	90a50041 	srl	r5, r5
    147c:	90a50041 	srl	r5, r5
    1480:	90a50041 	srl	r5, r5
    1484:	90a50041 	srl	r5, r5
    1488:	90a50041 	srl	r5, r5
    148c:	90a50041 	srl	r5, r5
    1490:	90a50041 	srl	r5, r5
    1494:	90a50041 	srl	r5, r5
    1498:	90a50041 	srl	r5, r5
    149c:	90a50041 	srl	r5, r5
    14a0:	90a50041 	srl	r5, r5
    14a4:	90a50041 	srl	r5, r5
    14a8:	90a50041 	srl	r5, r5
    14ac:	90a50041 	srl	r5, r5
    14b0:	90a50041 	srl	r5, r5
    14b4:	90a50041 	srl	r5, r5
    14b8:	90a50041 	srl	r5, r5
    14bc:	90a50041 	srl	r5, r5
    14c0:	90a50041 	srl	r5, r5
    14c4:	90a50041 	srl	r5, r5
    14c8:	90a50041 	srl	r5, r5
    14cc:	90a50041 	srl	r5, r5
    14d0:	90a50041 	srl	r5, r5
    14d4:	90a50041 	srl	r5, r5
    14d8:	90a50041 	srl	r5, r5
    14dc:	90a50041 	srl	r5, r5
    14e0:	90a50041 	srl	r5, r5
    14e4:	90a50041 	srl	r5, r5
    14e8:	90a50041 	srl	r5, r5
    14ec:	10651800 	addk	r3, r5, r3
    14f0:	90630001 	sra	r3, r3
    14f4:	b0000000 	imm	0
    14f8:	a463ffff 	andi	r3, r3, -1
    14fc:	10641800 	addk	r3, r4, r3
    1500:	b0000000 	imm	0
    1504:	a463ffff 	andi	r3, r3, -1
    1508:	90830061 	sext16	r4, r3
    150c:	e473001c 	lhui	r3, r19, 28
    1510:	90630061 	sext16	r3, r3
    1514:	80641800 	or	r3, r4, r3
    1518:	90630061 	sext16	r3, r3
    151c:	f473001c 	shi	r3, r19, 28
    1520:	b0000000 	imm	0
    1524:	e86089c4 	lwi	r3, r0, -30268	// 89c4 <pMMCMm1>
    1528:	e493001c 	lhui	r4, r19, 28
    152c:	f4830000 	shi	r4, r3, 0
    1530:	b8220004 	mbar	1
    1534:	b8420004 	mbar	2
    1538:	3060ff3f 	addik	r3, r0, -193
    153c:	f4730024 	shi	r3, r19, 36
    1540:	e493001e 	lhui	r4, r19, 30
    1544:	e4730024 	lhui	r3, r19, 36
    1548:	84641800 	and	r3, r4, r3
    154c:	f473001e 	shi	r3, r19, 30
    1550:	b0000000 	imm	0
    1554:	e86089c8 	lwi	r3, r0, -30264	// 89c8 <pMMCMm2>
    1558:	e493001e 	lhui	r4, r19, 30
    155c:	f4830000 	shi	r4, r3, 0
    1560:	30600002 	addik	r3, r0, 2
    1564:	f8730020 	swi	r3, r19, 32
    1568:	e8930030 	lwi	r4, r19, 48
    156c:	10602000 	addk	r3, r0, r4
    1570:	90640001 	sra	r3, r4
    1574:	90630001 	sra	r3, r3
    1578:	90630001 	sra	r3, r3
    157c:	90630001 	sra	r3, r3
    1580:	90630001 	sra	r3, r3
    1584:	90630001 	sra	r3, r3
    1588:	90630001 	sra	r3, r3
    158c:	90630001 	sra	r3, r3
    1590:	90630001 	sra	r3, r3
    1594:	90630001 	sra	r3, r3
    1598:	90630001 	sra	r3, r3
    159c:	90630001 	sra	r3, r3
    15a0:	90630001 	sra	r3, r3
    15a4:	90630001 	sra	r3, r3
    15a8:	90630001 	sra	r3, r3
    15ac:	90630001 	sra	r3, r3
    15b0:	90630001 	sra	r3, r3
    15b4:	90630001 	sra	r3, r3
    15b8:	90630001 	sra	r3, r3
    15bc:	90630001 	sra	r3, r3
    15c0:	90630001 	sra	r3, r3
    15c4:	90630001 	sra	r3, r3
    15c8:	90630001 	sra	r3, r3
    15cc:	90630001 	sra	r3, r3
    15d0:	90630001 	sra	r3, r3
    15d4:	90630001 	sra	r3, r3
    15d8:	90630001 	sra	r3, r3
    15dc:	90630001 	sra	r3, r3
    15e0:	90630001 	sra	r3, r3
    15e4:	90630001 	sra	r3, r3
    15e8:	90630001 	sra	r3, r3
    15ec:	88841800 	xor	r4, r4, r3
    15f0:	14832000 	rsubk	r4, r3, r4
    15f4:	a4840001 	andi	r4, r4, 1
    15f8:	88841800 	xor	r4, r4, r3
    15fc:	14632000 	rsubk	r3, r3, r4
    1600:	a8630001 	xori	r3, r3, 1
    1604:	bc23020c 	bnei	r3, 524		// 1810
    1608:	e8730030 	lwi	r3, r19, 48
    160c:	a8630001 	xori	r3, r3, 1
    1610:	bc030200 	beqi	r3, 512		// 1810
    1614:	3060f000 	addik	r3, r0, -4096
    1618:	f4730024 	shi	r3, r19, 36
    161c:	e493001c 	lhui	r4, r19, 28
    1620:	e4730024 	lhui	r3, r19, 36
    1624:	84641800 	and	r3, r4, r3
    1628:	f473001c 	shi	r3, r19, 28
    162c:	e8730030 	lwi	r3, r19, 48
    1630:	10801800 	addk	r4, r0, r3
    1634:	90830041 	srl	r4, r3
    1638:	90840041 	srl	r4, r4
    163c:	90840041 	srl	r4, r4
    1640:	90840041 	srl	r4, r4
    1644:	90840041 	srl	r4, r4
    1648:	90840041 	srl	r4, r4
    164c:	90840041 	srl	r4, r4
    1650:	90840041 	srl	r4, r4
    1654:	90840041 	srl	r4, r4
    1658:	90840041 	srl	r4, r4
    165c:	90840041 	srl	r4, r4
    1660:	90840041 	srl	r4, r4
    1664:	90840041 	srl	r4, r4
    1668:	90840041 	srl	r4, r4
    166c:	90840041 	srl	r4, r4
    1670:	90840041 	srl	r4, r4
    1674:	90840041 	srl	r4, r4
    1678:	90840041 	srl	r4, r4
    167c:	90840041 	srl	r4, r4
    1680:	90840041 	srl	r4, r4
    1684:	90840041 	srl	r4, r4
    1688:	90840041 	srl	r4, r4
    168c:	90840041 	srl	r4, r4
    1690:	90840041 	srl	r4, r4
    1694:	90840041 	srl	r4, r4
    1698:	90840041 	srl	r4, r4
    169c:	90840041 	srl	r4, r4
    16a0:	90840041 	srl	r4, r4
    16a4:	90840041 	srl	r4, r4
    16a8:	90840041 	srl	r4, r4
    16ac:	90840041 	srl	r4, r4
    16b0:	10641800 	addk	r3, r4, r3
    16b4:	90630001 	sra	r3, r3
    16b8:	b0000000 	imm	0
    16bc:	a463ffff 	andi	r3, r3, -1
    16c0:	10830000 	addk	r4, r3, r0
    16c4:	10632000 	addk	r3, r3, r4
    16c8:	10830000 	addk	r4, r3, r0
    16cc:	10632000 	addk	r3, r3, r4
    16d0:	10830000 	addk	r4, r3, r0
    16d4:	10632000 	addk	r3, r3, r4
    16d8:	10830000 	addk	r4, r3, r0
    16dc:	10632000 	addk	r3, r3, r4
    16e0:	10830000 	addk	r4, r3, r0
    16e4:	10632000 	addk	r3, r3, r4
    16e8:	10830000 	addk	r4, r3, r0
    16ec:	10632000 	addk	r3, r3, r4
    16f0:	b0000000 	imm	0
    16f4:	a483ffff 	andi	r4, r3, -1
    16f8:	e8730030 	lwi	r3, r19, 48
    16fc:	10a01800 	addk	r5, r0, r3
    1700:	90a30041 	srl	r5, r3
    1704:	90a50041 	srl	r5, r5
    1708:	90a50041 	srl	r5, r5
    170c:	90a50041 	srl	r5, r5
    1710:	90a50041 	srl	r5, r5
    1714:	90a50041 	srl	r5, r5
    1718:	90a50041 	srl	r5, r5
    171c:	90a50041 	srl	r5, r5
    1720:	90a50041 	srl	r5, r5
    1724:	90a50041 	srl	r5, r5
    1728:	90a50041 	srl	r5, r5
    172c:	90a50041 	srl	r5, r5
    1730:	90a50041 	srl	r5, r5
    1734:	90a50041 	srl	r5, r5
    1738:	90a50041 	srl	r5, r5
    173c:	90a50041 	srl	r5, r5
    1740:	90a50041 	srl	r5, r5
    1744:	90a50041 	srl	r5, r5
    1748:	90a50041 	srl	r5, r5
    174c:	90a50041 	srl	r5, r5
    1750:	90a50041 	srl	r5, r5
    1754:	90a50041 	srl	r5, r5
    1758:	90a50041 	srl	r5, r5
    175c:	90a50041 	srl	r5, r5
    1760:	90a50041 	srl	r5, r5
    1764:	90a50041 	srl	r5, r5
    1768:	90a50041 	srl	r5, r5
    176c:	90a50041 	srl	r5, r5
    1770:	90a50041 	srl	r5, r5
    1774:	90a50041 	srl	r5, r5
    1778:	90a50041 	srl	r5, r5
    177c:	10651800 	addk	r3, r5, r3
    1780:	90630001 	sra	r3, r3
    1784:	b0000000 	imm	0
    1788:	a463ffff 	andi	r3, r3, -1
    178c:	10641800 	addk	r3, r4, r3
    1790:	b0000000 	imm	0
    1794:	a463ffff 	andi	r3, r3, -1
    1798:	30630001 	addik	r3, r3, 1
    179c:	b0000000 	imm	0
    17a0:	a463ffff 	andi	r3, r3, -1
    17a4:	90830061 	sext16	r4, r3
    17a8:	e473001c 	lhui	r3, r19, 28
    17ac:	90630061 	sext16	r3, r3
    17b0:	80641800 	or	r3, r4, r3
    17b4:	90630061 	sext16	r3, r3
    17b8:	f473001c 	shi	r3, r19, 28
    17bc:	b0000000 	imm	0
    17c0:	e86089c4 	lwi	r3, r0, -30268	// 89c4 <pMMCMm1>
    17c4:	e493001c 	lhui	r4, r19, 28
    17c8:	f4830000 	shi	r4, r3, 0
    17cc:	b8220004 	mbar	1
    17d0:	b8420004 	mbar	2
    17d4:	3060ff3f 	addik	r3, r0, -193
    17d8:	f4730024 	shi	r3, r19, 36
    17dc:	e493001e 	lhui	r4, r19, 30
    17e0:	e4730024 	lhui	r3, r19, 36
    17e4:	84641800 	and	r3, r4, r3
    17e8:	f473001e 	shi	r3, r19, 30
    17ec:	e473001e 	lhui	r3, r19, 30
    17f0:	a0630080 	ori	r3, r3, 128
    17f4:	f473001e 	shi	r3, r19, 30
    17f8:	b0000000 	imm	0
    17fc:	e86089c8 	lwi	r3, r0, -30264	// 89c8 <pMMCMm2>
    1800:	e493001e 	lhui	r4, r19, 30
    1804:	f4830000 	shi	r4, r3, 0
    1808:	30600003 	addik	r3, r0, 3
    180c:	f8730020 	swi	r3, r19, 32
    1810:	b8220004 	mbar	1
    1814:	b8420004 	mbar	2
    1818:	e493001c 	lhui	r4, r19, 28
    181c:	e473001e 	lhui	r3, r19, 30
    1820:	b0000000 	imm	0
    1824:	30a07140 	addik	r5, r0, 28992
    1828:	10c40000 	addk	r6, r4, r0
    182c:	10e30000 	addk	r7, r3, r0
    1830:	b0000000 	imm	0
    1834:	b9f40a7c 	brlid	r15, 2684	// 22b0 <xil_printf>
    1838:	80000000 	or	r0, r0, r0
    183c:	b0000000 	imm	0
    1840:	b9f40f80 	brlid	r15, 3968	// 27c0 <microblaze_enable_interrupts>
    1844:	80000000 	or	r0, r0, r0
    1848:	e8730020 	lwi	r3, r19, 32
    184c:	e9e10000 	lwi	r15, r1, 0
    1850:	10330000 	addk	r1, r19, r0
    1854:	ea610028 	lwi	r19, r1, 40
    1858:	3021002c 	addik	r1, r1, 44
    185c:	b60f0008 	rtsd	r15, 8
    1860:	80000000 	or	r0, r0, r0

00001864 <setDividerOutput1>:
    1864:	3021ffd4 	addik	r1, r1, -44
    1868:	f9e10000 	swi	r15, r1, 0
    186c:	fa610028 	swi	r19, r1, 40
    1870:	12610000 	addk	r19, r1, r0
    1874:	f8b30030 	swi	r5, r19, 48
    1878:	b0000000 	imm	0
    187c:	b9f40ef4 	brlid	r15, 3828	// 2770 <microblaze_disable_interrupts>
    1880:	80000000 	or	r0, r0, r0
    1884:	b0000000 	imm	0
    1888:	e86089bc 	lwi	r3, r0, -30276	// 89bc <pMMCMo1>
    188c:	e4630000 	lhui	r3, r3, 0
    1890:	f473001c 	shi	r3, r19, 28
    1894:	b0000000 	imm	0
    1898:	e86089c0 	lwi	r3, r0, -30272	// 89c0 <pMMCMo2>
    189c:	e4630000 	lhui	r3, r3, 0
    18a0:	f473001e 	shi	r3, r19, 30
    18a4:	f8130020 	swi	r0, r19, 32
    18a8:	e8730030 	lwi	r3, r19, 48
    18ac:	a8630001 	xori	r3, r3, 1
    18b0:	bc230070 	bnei	r3, 112		// 1920
    18b4:	3060f000 	addik	r3, r0, -4096
    18b8:	f4730024 	shi	r3, r19, 36
    18bc:	e493001c 	lhui	r4, r19, 28
    18c0:	e4730024 	lhui	r3, r19, 36
    18c4:	84641800 	and	r3, r4, r3
    18c8:	f473001c 	shi	r3, r19, 28
    18cc:	b0000000 	imm	0
    18d0:	e86089bc 	lwi	r3, r0, -30276	// 89bc <pMMCMo1>
    18d4:	e493001c 	lhui	r4, r19, 28
    18d8:	f4830000 	shi	r4, r3, 0
    18dc:	b8220004 	mbar	1
    18e0:	b8420004 	mbar	2
    18e4:	3060ff3f 	addik	r3, r0, -193
    18e8:	f4730024 	shi	r3, r19, 36
    18ec:	e493001e 	lhui	r4, r19, 30
    18f0:	e4730024 	lhui	r3, r19, 36
    18f4:	84641800 	and	r3, r4, r3
    18f8:	f473001e 	shi	r3, r19, 30
    18fc:	e473001e 	lhui	r3, r19, 30
    1900:	a0630040 	ori	r3, r3, 64
    1904:	f473001e 	shi	r3, r19, 30
    1908:	b0000000 	imm	0
    190c:	e86089c0 	lwi	r3, r0, -30272	// 89c0 <pMMCMo2>
    1910:	e493001e 	lhui	r4, r19, 30
    1914:	f4830000 	shi	r4, r3, 0
    1918:	30600001 	addik	r3, r0, 1
    191c:	f8730020 	swi	r3, r19, 32
    1920:	e8730030 	lwi	r3, r19, 48
    1924:	a4630001 	andi	r3, r3, 1
    1928:	bc2301e8 	bnei	r3, 488		// 1b10
    192c:	3060f000 	addik	r3, r0, -4096
    1930:	f4730024 	shi	r3, r19, 36
    1934:	e493001c 	lhui	r4, r19, 28
    1938:	e4730024 	lhui	r3, r19, 36
    193c:	84641800 	and	r3, r4, r3
    1940:	f473001c 	shi	r3, r19, 28
    1944:	e8730030 	lwi	r3, r19, 48
    1948:	10801800 	addk	r4, r0, r3
    194c:	90830041 	srl	r4, r3
    1950:	90840041 	srl	r4, r4
    1954:	90840041 	srl	r4, r4
    1958:	90840041 	srl	r4, r4
    195c:	90840041 	srl	r4, r4
    1960:	90840041 	srl	r4, r4
    1964:	90840041 	srl	r4, r4
    1968:	90840041 	srl	r4, r4
    196c:	90840041 	srl	r4, r4
    1970:	90840041 	srl	r4, r4
    1974:	90840041 	srl	r4, r4
    1978:	90840041 	srl	r4, r4
    197c:	90840041 	srl	r4, r4
    1980:	90840041 	srl	r4, r4
    1984:	90840041 	srl	r4, r4
    1988:	90840041 	srl	r4, r4
    198c:	90840041 	srl	r4, r4
    1990:	90840041 	srl	r4, r4
    1994:	90840041 	srl	r4, r4
    1998:	90840041 	srl	r4, r4
    199c:	90840041 	srl	r4, r4
    19a0:	90840041 	srl	r4, r4
    19a4:	90840041 	srl	r4, r4
    19a8:	90840041 	srl	r4, r4
    19ac:	90840041 	srl	r4, r4
    19b0:	90840041 	srl	r4, r4
    19b4:	90840041 	srl	r4, r4
    19b8:	90840041 	srl	r4, r4
    19bc:	90840041 	srl	r4, r4
    19c0:	90840041 	srl	r4, r4
    19c4:	90840041 	srl	r4, r4
    19c8:	10641800 	addk	r3, r4, r3
    19cc:	90630001 	sra	r3, r3
    19d0:	b0000000 	imm	0
    19d4:	a463ffff 	andi	r3, r3, -1
    19d8:	10830000 	addk	r4, r3, r0
    19dc:	10632000 	addk	r3, r3, r4
    19e0:	10830000 	addk	r4, r3, r0
    19e4:	10632000 	addk	r3, r3, r4
    19e8:	10830000 	addk	r4, r3, r0
    19ec:	10632000 	addk	r3, r3, r4
    19f0:	10830000 	addk	r4, r3, r0
    19f4:	10632000 	addk	r3, r3, r4
    19f8:	10830000 	addk	r4, r3, r0
    19fc:	10632000 	addk	r3, r3, r4
    1a00:	10830000 	addk	r4, r3, r0
    1a04:	10632000 	addk	r3, r3, r4
    1a08:	b0000000 	imm	0
    1a0c:	a483ffff 	andi	r4, r3, -1
    1a10:	e8730030 	lwi	r3, r19, 48
    1a14:	10a01800 	addk	r5, r0, r3
    1a18:	90a30041 	srl	r5, r3
    1a1c:	90a50041 	srl	r5, r5
    1a20:	90a50041 	srl	r5, r5
    1a24:	90a50041 	srl	r5, r5
    1a28:	90a50041 	srl	r5, r5
    1a2c:	90a50041 	srl	r5, r5
    1a30:	90a50041 	srl	r5, r5
    1a34:	90a50041 	srl	r5, r5
    1a38:	90a50041 	srl	r5, r5
    1a3c:	90a50041 	srl	r5, r5
    1a40:	90a50041 	srl	r5, r5
    1a44:	90a50041 	srl	r5, r5
    1a48:	90a50041 	srl	r5, r5
    1a4c:	90a50041 	srl	r5, r5
    1a50:	90a50041 	srl	r5, r5
    1a54:	90a50041 	srl	r5, r5
    1a58:	90a50041 	srl	r5, r5
    1a5c:	90a50041 	srl	r5, r5
    1a60:	90a50041 	srl	r5, r5
    1a64:	90a50041 	srl	r5, r5
    1a68:	90a50041 	srl	r5, r5
    1a6c:	90a50041 	srl	r5, r5
    1a70:	90a50041 	srl	r5, r5
    1a74:	90a50041 	srl	r5, r5
    1a78:	90a50041 	srl	r5, r5
    1a7c:	90a50041 	srl	r5, r5
    1a80:	90a50041 	srl	r5, r5
    1a84:	90a50041 	srl	r5, r5
    1a88:	90a50041 	srl	r5, r5
    1a8c:	90a50041 	srl	r5, r5
    1a90:	90a50041 	srl	r5, r5
    1a94:	10651800 	addk	r3, r5, r3
    1a98:	90630001 	sra	r3, r3
    1a9c:	b0000000 	imm	0
    1aa0:	a463ffff 	andi	r3, r3, -1
    1aa4:	10641800 	addk	r3, r4, r3
    1aa8:	b0000000 	imm	0
    1aac:	a463ffff 	andi	r3, r3, -1
    1ab0:	90830061 	sext16	r4, r3
    1ab4:	e473001c 	lhui	r3, r19, 28
    1ab8:	90630061 	sext16	r3, r3
    1abc:	80641800 	or	r3, r4, r3
    1ac0:	90630061 	sext16	r3, r3
    1ac4:	f473001c 	shi	r3, r19, 28
    1ac8:	b0000000 	imm	0
    1acc:	e86089bc 	lwi	r3, r0, -30276	// 89bc <pMMCMo1>
    1ad0:	e493001c 	lhui	r4, r19, 28
    1ad4:	f4830000 	shi	r4, r3, 0
    1ad8:	b8220004 	mbar	1
    1adc:	b8420004 	mbar	2
    1ae0:	3060ff3f 	addik	r3, r0, -193
    1ae4:	f4730024 	shi	r3, r19, 36
    1ae8:	e493001e 	lhui	r4, r19, 30
    1aec:	e4730024 	lhui	r3, r19, 36
    1af0:	84641800 	and	r3, r4, r3
    1af4:	f473001e 	shi	r3, r19, 30
    1af8:	b0000000 	imm	0
    1afc:	e86089c0 	lwi	r3, r0, -30272	// 89c0 <pMMCMo2>
    1b00:	e493001e 	lhui	r4, r19, 30
    1b04:	f4830000 	shi	r4, r3, 0
    1b08:	30600002 	addik	r3, r0, 2
    1b0c:	f8730020 	swi	r3, r19, 32
    1b10:	e8930030 	lwi	r4, r19, 48
    1b14:	10602000 	addk	r3, r0, r4
    1b18:	90640001 	sra	r3, r4
    1b1c:	90630001 	sra	r3, r3
    1b20:	90630001 	sra	r3, r3
    1b24:	90630001 	sra	r3, r3
    1b28:	90630001 	sra	r3, r3
    1b2c:	90630001 	sra	r3, r3
    1b30:	90630001 	sra	r3, r3
    1b34:	90630001 	sra	r3, r3
    1b38:	90630001 	sra	r3, r3
    1b3c:	90630001 	sra	r3, r3
    1b40:	90630001 	sra	r3, r3
    1b44:	90630001 	sra	r3, r3
    1b48:	90630001 	sra	r3, r3
    1b4c:	90630001 	sra	r3, r3
    1b50:	90630001 	sra	r3, r3
    1b54:	90630001 	sra	r3, r3
    1b58:	90630001 	sra	r3, r3
    1b5c:	90630001 	sra	r3, r3
    1b60:	90630001 	sra	r3, r3
    1b64:	90630001 	sra	r3, r3
    1b68:	90630001 	sra	r3, r3
    1b6c:	90630001 	sra	r3, r3
    1b70:	90630001 	sra	r3, r3
    1b74:	90630001 	sra	r3, r3
    1b78:	90630001 	sra	r3, r3
    1b7c:	90630001 	sra	r3, r3
    1b80:	90630001 	sra	r3, r3
    1b84:	90630001 	sra	r3, r3
    1b88:	90630001 	sra	r3, r3
    1b8c:	90630001 	sra	r3, r3
    1b90:	90630001 	sra	r3, r3
    1b94:	88841800 	xor	r4, r4, r3
    1b98:	14832000 	rsubk	r4, r3, r4
    1b9c:	a4840001 	andi	r4, r4, 1
    1ba0:	88841800 	xor	r4, r4, r3
    1ba4:	14632000 	rsubk	r3, r3, r4
    1ba8:	a8630001 	xori	r3, r3, 1
    1bac:	bc23020c 	bnei	r3, 524		// 1db8
    1bb0:	e8730030 	lwi	r3, r19, 48
    1bb4:	a8630001 	xori	r3, r3, 1
    1bb8:	bc030200 	beqi	r3, 512		// 1db8
    1bbc:	3060f000 	addik	r3, r0, -4096
    1bc0:	f4730024 	shi	r3, r19, 36
    1bc4:	e493001c 	lhui	r4, r19, 28
    1bc8:	e4730024 	lhui	r3, r19, 36
    1bcc:	84641800 	and	r3, r4, r3
    1bd0:	f473001c 	shi	r3, r19, 28
    1bd4:	e8730030 	lwi	r3, r19, 48
    1bd8:	10801800 	addk	r4, r0, r3
    1bdc:	90830041 	srl	r4, r3
    1be0:	90840041 	srl	r4, r4
    1be4:	90840041 	srl	r4, r4
    1be8:	90840041 	srl	r4, r4
    1bec:	90840041 	srl	r4, r4
    1bf0:	90840041 	srl	r4, r4
    1bf4:	90840041 	srl	r4, r4
    1bf8:	90840041 	srl	r4, r4
    1bfc:	90840041 	srl	r4, r4
    1c00:	90840041 	srl	r4, r4
    1c04:	90840041 	srl	r4, r4
    1c08:	90840041 	srl	r4, r4
    1c0c:	90840041 	srl	r4, r4
    1c10:	90840041 	srl	r4, r4
    1c14:	90840041 	srl	r4, r4
    1c18:	90840041 	srl	r4, r4
    1c1c:	90840041 	srl	r4, r4
    1c20:	90840041 	srl	r4, r4
    1c24:	90840041 	srl	r4, r4
    1c28:	90840041 	srl	r4, r4
    1c2c:	90840041 	srl	r4, r4
    1c30:	90840041 	srl	r4, r4
    1c34:	90840041 	srl	r4, r4
    1c38:	90840041 	srl	r4, r4
    1c3c:	90840041 	srl	r4, r4
    1c40:	90840041 	srl	r4, r4
    1c44:	90840041 	srl	r4, r4
    1c48:	90840041 	srl	r4, r4
    1c4c:	90840041 	srl	r4, r4
    1c50:	90840041 	srl	r4, r4
    1c54:	90840041 	srl	r4, r4
    1c58:	10641800 	addk	r3, r4, r3
    1c5c:	90630001 	sra	r3, r3
    1c60:	b0000000 	imm	0
    1c64:	a463ffff 	andi	r3, r3, -1
    1c68:	10830000 	addk	r4, r3, r0
    1c6c:	10632000 	addk	r3, r3, r4
    1c70:	10830000 	addk	r4, r3, r0
    1c74:	10632000 	addk	r3, r3, r4
    1c78:	10830000 	addk	r4, r3, r0
    1c7c:	10632000 	addk	r3, r3, r4
    1c80:	10830000 	addk	r4, r3, r0
    1c84:	10632000 	addk	r3, r3, r4
    1c88:	10830000 	addk	r4, r3, r0
    1c8c:	10632000 	addk	r3, r3, r4
    1c90:	10830000 	addk	r4, r3, r0
    1c94:	10632000 	addk	r3, r3, r4
    1c98:	b0000000 	imm	0
    1c9c:	a483ffff 	andi	r4, r3, -1
    1ca0:	e8730030 	lwi	r3, r19, 48
    1ca4:	10a01800 	addk	r5, r0, r3
    1ca8:	90a30041 	srl	r5, r3
    1cac:	90a50041 	srl	r5, r5
    1cb0:	90a50041 	srl	r5, r5
    1cb4:	90a50041 	srl	r5, r5
    1cb8:	90a50041 	srl	r5, r5
    1cbc:	90a50041 	srl	r5, r5
    1cc0:	90a50041 	srl	r5, r5
    1cc4:	90a50041 	srl	r5, r5
    1cc8:	90a50041 	srl	r5, r5
    1ccc:	90a50041 	srl	r5, r5
    1cd0:	90a50041 	srl	r5, r5
    1cd4:	90a50041 	srl	r5, r5
    1cd8:	90a50041 	srl	r5, r5
    1cdc:	90a50041 	srl	r5, r5
    1ce0:	90a50041 	srl	r5, r5
    1ce4:	90a50041 	srl	r5, r5
    1ce8:	90a50041 	srl	r5, r5
    1cec:	90a50041 	srl	r5, r5
    1cf0:	90a50041 	srl	r5, r5
    1cf4:	90a50041 	srl	r5, r5
    1cf8:	90a50041 	srl	r5, r5
    1cfc:	90a50041 	srl	r5, r5
    1d00:	90a50041 	srl	r5, r5
    1d04:	90a50041 	srl	r5, r5
    1d08:	90a50041 	srl	r5, r5
    1d0c:	90a50041 	srl	r5, r5
    1d10:	90a50041 	srl	r5, r5
    1d14:	90a50041 	srl	r5, r5
    1d18:	90a50041 	srl	r5, r5
    1d1c:	90a50041 	srl	r5, r5
    1d20:	90a50041 	srl	r5, r5
    1d24:	10651800 	addk	r3, r5, r3
    1d28:	90630001 	sra	r3, r3
    1d2c:	b0000000 	imm	0
    1d30:	a463ffff 	andi	r3, r3, -1
    1d34:	10641800 	addk	r3, r4, r3
    1d38:	b0000000 	imm	0
    1d3c:	a463ffff 	andi	r3, r3, -1
    1d40:	30630001 	addik	r3, r3, 1
    1d44:	b0000000 	imm	0
    1d48:	a463ffff 	andi	r3, r3, -1
    1d4c:	90830061 	sext16	r4, r3
    1d50:	e473001c 	lhui	r3, r19, 28
    1d54:	90630061 	sext16	r3, r3
    1d58:	80641800 	or	r3, r4, r3
    1d5c:	90630061 	sext16	r3, r3
    1d60:	f473001c 	shi	r3, r19, 28
    1d64:	b0000000 	imm	0
    1d68:	e86089bc 	lwi	r3, r0, -30276	// 89bc <pMMCMo1>
    1d6c:	e493001c 	lhui	r4, r19, 28
    1d70:	f4830000 	shi	r4, r3, 0
    1d74:	b8220004 	mbar	1
    1d78:	b8420004 	mbar	2
    1d7c:	3060ff3f 	addik	r3, r0, -193
    1d80:	f4730024 	shi	r3, r19, 36
    1d84:	e493001e 	lhui	r4, r19, 30
    1d88:	e4730024 	lhui	r3, r19, 36
    1d8c:	84641800 	and	r3, r4, r3
    1d90:	f473001e 	shi	r3, r19, 30
    1d94:	e473001e 	lhui	r3, r19, 30
    1d98:	a0630080 	ori	r3, r3, 128
    1d9c:	f473001e 	shi	r3, r19, 30
    1da0:	b0000000 	imm	0
    1da4:	e86089c0 	lwi	r3, r0, -30272	// 89c0 <pMMCMo2>
    1da8:	e493001e 	lhui	r4, r19, 30
    1dac:	f4830000 	shi	r4, r3, 0
    1db0:	30600003 	addik	r3, r0, 3
    1db4:	f8730020 	swi	r3, r19, 32
    1db8:	b8220004 	mbar	1
    1dbc:	b8420004 	mbar	2
    1dc0:	e493001c 	lhui	r4, r19, 28
    1dc4:	e473001e 	lhui	r3, r19, 30
    1dc8:	b0000000 	imm	0
    1dcc:	30a07158 	addik	r5, r0, 29016
    1dd0:	10c40000 	addk	r6, r4, r0
    1dd4:	10e30000 	addk	r7, r3, r0
    1dd8:	b0000000 	imm	0
    1ddc:	b9f404d4 	brlid	r15, 1236	// 22b0 <xil_printf>
    1de0:	80000000 	or	r0, r0, r0
    1de4:	b0000000 	imm	0
    1de8:	b9f409d8 	brlid	r15, 2520	// 27c0 <microblaze_enable_interrupts>
    1dec:	80000000 	or	r0, r0, r0
    1df0:	e8730020 	lwi	r3, r19, 32
    1df4:	e9e10000 	lwi	r15, r1, 0
    1df8:	10330000 	addk	r1, r19, r0
    1dfc:	ea610028 	lwi	r19, r1, 40
    1e00:	3021002c 	addik	r1, r1, 44
    1e04:	b60f0008 	rtsd	r15, 8
    1e08:	80000000 	or	r0, r0, r0

00001e0c <calcFreq>:
    1e0c:	3021ffd8 	addik	r1, r1, -40
    1e10:	f9e10000 	swi	r15, r1, 0
    1e14:	fa610024 	swi	r19, r1, 36
    1e18:	12610000 	addk	r19, r1, r0
    1e1c:	f8b3002c 	swi	r5, r19, 44
    1e20:	f8d30030 	swi	r6, r19, 48
    1e24:	f8f30034 	swi	r7, r19, 52
    1e28:	e8b30030 	lwi	r5, r19, 48
    1e2c:	e8d30034 	lwi	r6, r19, 52
    1e30:	b0000000 	imm	0
    1e34:	b9f441d8 	brlid	r15, 16856	// 600c <__mulsi3>
    1e38:	80000000 	or	r0, r0, r0
    1e3c:	10a30000 	addk	r5, r3, r0
    1e40:	b0000000 	imm	0
    1e44:	b9f43ef0 	brlid	r15, 16112	// 5d34 <__floatsidf>
    1e48:	80000000 	or	r0, r0, r0
    1e4c:	10a40000 	addk	r5, r4, r0
    1e50:	10830000 	addk	r4, r3, r0
    1e54:	f893001c 	swi	r4, r19, 28
    1e58:	f8b30020 	swi	r5, r19, 32
    1e5c:	e893002c 	lwi	r4, r19, 44
    1e60:	10640000 	addk	r3, r4, r0
    1e64:	10631800 	addk	r3, r3, r3
    1e68:	10632000 	addk	r3, r3, r4
    1e6c:	10a31800 	addk	r5, r3, r3
    1e70:	10a52800 	addk	r5, r5, r5
    1e74:	10a52800 	addk	r5, r5, r5
    1e78:	10a52800 	addk	r5, r5, r5
    1e7c:	10a52800 	addk	r5, r5, r5
    1e80:	10632800 	addk	r3, r3, r5
    1e84:	10632000 	addk	r3, r3, r4
    1e88:	10a30000 	addk	r5, r3, r0
    1e8c:	b0000000 	imm	0
    1e90:	b9f43ea4 	brlid	r15, 16036	// 5d34 <__floatsidf>
    1e94:	80000000 	or	r0, r0, r0
    1e98:	10a40000 	addk	r5, r4, r0
    1e9c:	10830000 	addk	r4, r3, r0
    1ea0:	10c50000 	addk	r6, r5, r0
    1ea4:	10a40000 	addk	r5, r4, r0
    1ea8:	e8f3001c 	lwi	r7, r19, 28
    1eac:	e9130020 	lwi	r8, r19, 32
    1eb0:	b0000000 	imm	0
    1eb4:	b9f43b04 	brlid	r15, 15108	// 59b8 <__divdf3>
    1eb8:	80000000 	or	r0, r0, r0
    1ebc:	10a40000 	addk	r5, r4, r0
    1ec0:	10830000 	addk	r4, r3, r0
    1ec4:	10640000 	addk	r3, r4, r0
    1ec8:	10850000 	addk	r4, r5, r0
    1ecc:	e9e10000 	lwi	r15, r1, 0
    1ed0:	10330000 	addk	r1, r19, r0
    1ed4:	ea610024 	lwi	r19, r1, 36
    1ed8:	30210028 	addik	r1, r1, 40
    1edc:	b60f0008 	rtsd	r15, 8
    1ee0:	80000000 	or	r0, r0, r0

00001ee4 <enable_caches>:
    1ee4:	3021ffe0 	addik	r1, r1, -32
    1ee8:	f9e10000 	swi	r15, r1, 0
    1eec:	fa61001c 	swi	r19, r1, 28
    1ef0:	12610000 	addk	r19, r1, r0
    1ef4:	b0000000 	imm	0
    1ef8:	b9f408b0 	brlid	r15, 2224	// 27a8 <microblaze_enable_icache>
    1efc:	80000000 	or	r0, r0, r0
    1f00:	b0000000 	imm	0
    1f04:	b9f4088c 	brlid	r15, 2188	// 2790 <microblaze_enable_dcache>
    1f08:	80000000 	or	r0, r0, r0
    1f0c:	e9e10000 	lwi	r15, r1, 0
    1f10:	10330000 	addk	r1, r19, r0
    1f14:	ea61001c 	lwi	r19, r1, 28
    1f18:	30210020 	addik	r1, r1, 32
    1f1c:	b60f0008 	rtsd	r15, 8
    1f20:	80000000 	or	r0, r0, r0

00001f24 <disable_caches>:
    1f24:	3021ffe0 	addik	r1, r1, -32
    1f28:	f9e10000 	swi	r15, r1, 0
    1f2c:	fa61001c 	swi	r19, r1, 28
    1f30:	12610000 	addk	r19, r1, r0
    1f34:	b0000000 	imm	0
    1f38:	b9f4098c 	brlid	r15, 2444	// 28c4 <Xil_DCacheDisable>
    1f3c:	80000000 	or	r0, r0, r0
    1f40:	b0000000 	imm	0
    1f44:	b9f409b8 	brlid	r15, 2488	// 28fc <Xil_ICacheDisable>
    1f48:	80000000 	or	r0, r0, r0
    1f4c:	e9e10000 	lwi	r15, r1, 0
    1f50:	10330000 	addk	r1, r19, r0
    1f54:	ea61001c 	lwi	r19, r1, 28
    1f58:	30210020 	addik	r1, r1, 32
    1f5c:	b60f0008 	rtsd	r15, 8
    1f60:	80000000 	or	r0, r0, r0

00001f64 <init_uart>:
    1f64:	3021fff8 	addik	r1, r1, -8
    1f68:	fa610004 	swi	r19, r1, 4
    1f6c:	12610000 	addk	r19, r1, r0
    1f70:	10330000 	addk	r1, r19, r0
    1f74:	ea610004 	lwi	r19, r1, 4
    1f78:	30210008 	addik	r1, r1, 8
    1f7c:	b60f0008 	rtsd	r15, 8
    1f80:	80000000 	or	r0, r0, r0

00001f84 <init_platform>:
    1f84:	3021ffe0 	addik	r1, r1, -32
    1f88:	f9e10000 	swi	r15, r1, 0
    1f8c:	fa61001c 	swi	r19, r1, 28
    1f90:	12610000 	addk	r19, r1, r0
    1f94:	b9f4ff50 	brlid	r15, -176	// 1ee4 <enable_caches>
    1f98:	80000000 	or	r0, r0, r0
    1f9c:	b9f4ffc8 	brlid	r15, -56	// 1f64 <init_uart>
    1fa0:	80000000 	or	r0, r0, r0
    1fa4:	e9e10000 	lwi	r15, r1, 0
    1fa8:	10330000 	addk	r1, r19, r0
    1fac:	ea61001c 	lwi	r19, r1, 28
    1fb0:	30210020 	addik	r1, r1, 32
    1fb4:	b60f0008 	rtsd	r15, 8
    1fb8:	80000000 	or	r0, r0, r0

00001fbc <cleanup_platform>:
    1fbc:	3021ffe0 	addik	r1, r1, -32
    1fc0:	f9e10000 	swi	r15, r1, 0
    1fc4:	fa61001c 	swi	r19, r1, 28
    1fc8:	12610000 	addk	r19, r1, r0
    1fcc:	b9f4ff58 	brlid	r15, -168	// 1f24 <disable_caches>
    1fd0:	80000000 	or	r0, r0, r0
    1fd4:	e9e10000 	lwi	r15, r1, 0
    1fd8:	10330000 	addk	r1, r19, r0
    1fdc:	ea61001c 	lwi	r19, r1, 28
    1fe0:	30210020 	addik	r1, r1, 32
    1fe4:	b60f0008 	rtsd	r15, 8
    1fe8:	80000000 	or	r0, r0, r0

00001fec <print>:
    1fec:	3021ffdc 	addik	r1, r1, -36
    1ff0:	fa61001c 	swi	r19, r1, 28
    1ff4:	f9e10000 	swi	r15, r1, 0
    1ff8:	fac10020 	swi	r22, r1, 32
    1ffc:	12650000 	addk	r19, r5, r0
    2000:	e0a50000 	lbui	r5, r5, 0
    2004:	90a50060 	sext8	r5, r5
    2008:	be050028 	beqid	r5, 40		// 2030
    200c:	e9e10000 	lwi	r15, r1, 0
    2010:	b0000000 	imm	0
    2014:	b9f40884 	brlid	r15, 2180	// 2898 <outbyte>
    2018:	32d30001 	addik	r22, r19, 1
    201c:	e0b30001 	lbui	r5, r19, 1
    2020:	90a50060 	sext8	r5, r5
    2024:	be25ffec 	bneid	r5, -20		// 2010
    2028:	12760000 	addk	r19, r22, r0
    202c:	e9e10000 	lwi	r15, r1, 0
    2030:	ea61001c 	lwi	r19, r1, 28
    2034:	eac10020 	lwi	r22, r1, 32
    2038:	b60f0008 	rtsd	r15, 8
    203c:	30210024 	addik	r1, r1, 36

00002040 <padding>:
    2040:	3021ffdc 	addik	r1, r1, -36
    2044:	14650000 	rsubk	r3, r5, r0
    2048:	fa61001c 	swi	r19, r1, 28
    204c:	f9e10000 	swi	r15, r1, 0
    2050:	fac10020 	swi	r22, r1, 32
    2054:	80a32800 	or	r5, r3, r5
    2058:	bea5004c 	bgeid	r5, 76		// 20a4
    205c:	12660000 	addk	r19, r6, r0
    2060:	e8660010 	lwi	r3, r6, 16
    2064:	14830000 	rsubk	r4, r3, r0
    2068:	80641800 	or	r3, r4, r3
    206c:	bea3003c 	bgeid	r3, 60		// 20a8
    2070:	e9e10000 	lwi	r15, r1, 0
    2074:	eac60000 	lwi	r22, r6, 0
    2078:	e8660004 	lwi	r3, r6, 4
    207c:	1463b001 	cmp	r3, r3, r22
    2080:	bca30028 	bgei	r3, 40		// 20a8
    2084:	e0b3000c 	lbui	r5, r19, 12
    2088:	32d60001 	addik	r22, r22, 1
    208c:	b0000000 	imm	0
    2090:	b9f40808 	brlid	r15, 2056	// 2898 <outbyte>
    2094:	90a50060 	sext8	r5, r5
    2098:	e8730004 	lwi	r3, r19, 4
    209c:	1463b001 	cmp	r3, r3, r22
    20a0:	bc43ffe4 	blti	r3, -28		// 2084
    20a4:	e9e10000 	lwi	r15, r1, 0
    20a8:	ea61001c 	lwi	r19, r1, 28
    20ac:	eac10020 	lwi	r22, r1, 32
    20b0:	b60f0008 	rtsd	r15, 8
    20b4:	30210024 	addik	r1, r1, 36

000020b8 <outnum>:
    20b8:	3021ff90 	addik	r1, r1, -112
    20bc:	a866000a 	xori	r3, r6, 10
    20c0:	fae1005c 	swi	r23, r1, 92
    20c4:	12e60000 	addk	r23, r6, r0
    20c8:	b0000000 	imm	0
    20cc:	e8c07170 	lwi	r6, r0, 29040
    20d0:	14830000 	rsubk	r4, r3, r0
    20d4:	fb410068 	swi	r26, r1, 104
    20d8:	f8c1001c 	swi	r6, r1, 28
    20dc:	b0000000 	imm	0
    20e0:	e8c07174 	lwi	r6, r0, 29044
    20e4:	f9e10000 	swi	r15, r1, 0
    20e8:	fa610054 	swi	r19, r1, 84
    20ec:	f8c10020 	swi	r6, r1, 32
    20f0:	b0000000 	imm	0
    20f4:	e8c07178 	lwi	r6, r0, 29048
    20f8:	fac10058 	swi	r22, r1, 88
    20fc:	fb010060 	swi	r24, r1, 96
    2100:	f8c10024 	swi	r6, r1, 36
    2104:	b0000000 	imm	0
    2108:	e8c0717c 	lwi	r6, r0, 29052
    210c:	fb210064 	swi	r25, r1, 100
    2110:	fb61006c 	swi	r27, r1, 108
    2114:	f8c10028 	swi	r6, r1, 40
    2118:	b0000000 	imm	0
    211c:	e0c07180 	lbui	r6, r0, 29056
    2120:	80641800 	or	r3, r4, r3
    2124:	13470000 	addk	r26, r7, r0
    2128:	be43000c 	bltid	r3, 12		// 2134
    212c:	f0c1002c 	sbi	r6, r1, 44
    2130:	bc450174 	blti	r5, 372		// 22a4
    2134:	12650000 	addk	r19, r5, r0
    2138:	13600000 	addk	r27, r0, r0
    213c:	33210030 	addik	r25, r1, 48
    2140:	b810000c 	brid	12		// 214c
    2144:	12d90000 	addk	r22, r25, r0
    2148:	12d80000 	addk	r22, r24, r0
    214c:	10b30000 	addk	r5, r19, r0
    2150:	10d70000 	addk	r6, r23, r0
    2154:	b0000000 	imm	0
    2158:	b9f43fb4 	brlid	r15, 16308	// 610c <__umodsi3>
    215c:	33160001 	addik	r24, r22, 1
    2160:	10611800 	addk	r3, r1, r3
    2164:	e063001c 	lbui	r3, r3, 28
    2168:	10b30000 	addk	r5, r19, r0
    216c:	10d70000 	addk	r6, r23, r0
    2170:	b0000000 	imm	0
    2174:	b9f43ef0 	brlid	r15, 16112	// 6064 <__udivsi3>
    2178:	f0760000 	sbi	r3, r22, 0
    217c:	be23ffcc 	bneid	r3, -52		// 2148
    2180:	12630000 	addk	r19, r3, r0
    2184:	be1b0014 	beqid	r27, 20		// 2198
    2188:	10b90000 	addk	r5, r25, r0
    218c:	3060002d 	addik	r3, r0, 45
    2190:	f0760001 	sbi	r3, r22, 1
    2194:	33160002 	addik	r24, r22, 2
    2198:	f0180000 	sbi	r0, r24, 0
    219c:	b0000000 	imm	0
    21a0:	b9f44abc 	brlid	r15, 19132	// 6c5c <strlen>
    21a4:	3278ffff 	addik	r19, r24, -1
    21a8:	e89a0014 	lwi	r4, r26, 20
    21ac:	f87a0000 	swi	r3, r26, 0
    21b0:	10da0000 	addk	r6, r26, r0
    21b4:	14a40000 	rsubk	r5, r4, r0
    21b8:	80a52000 	or	r5, r5, r4
    21bc:	a8a5ffff 	xori	r5, r5, -1
    21c0:	10602800 	addk	r3, r0, r5
    21c4:	90650041 	srl	r3, r5
    21c8:	90630041 	srl	r3, r3
    21cc:	90630041 	srl	r3, r3
    21d0:	90630041 	srl	r3, r3
    21d4:	90630041 	srl	r3, r3
    21d8:	90630041 	srl	r3, r3
    21dc:	90630041 	srl	r3, r3
    21e0:	90630041 	srl	r3, r3
    21e4:	90630041 	srl	r3, r3
    21e8:	90630041 	srl	r3, r3
    21ec:	90630041 	srl	r3, r3
    21f0:	90630041 	srl	r3, r3
    21f4:	90630041 	srl	r3, r3
    21f8:	90630041 	srl	r3, r3
    21fc:	90630041 	srl	r3, r3
    2200:	90630041 	srl	r3, r3
    2204:	90630041 	srl	r3, r3
    2208:	90630041 	srl	r3, r3
    220c:	90630041 	srl	r3, r3
    2210:	90630041 	srl	r3, r3
    2214:	90630041 	srl	r3, r3
    2218:	90630041 	srl	r3, r3
    221c:	90630041 	srl	r3, r3
    2220:	90630041 	srl	r3, r3
    2224:	90630041 	srl	r3, r3
    2228:	90630041 	srl	r3, r3
    222c:	90630041 	srl	r3, r3
    2230:	90630041 	srl	r3, r3
    2234:	90630041 	srl	r3, r3
    2238:	90630041 	srl	r3, r3
    223c:	90630041 	srl	r3, r3
    2240:	10a30000 	addk	r5, r3, r0
    2244:	b9f4fdfc 	brlid	r15, -516	// 2040 <padding>
    2248:	f8610050 	swi	r3, r1, 80
    224c:	14799803 	cmpu	r3, r25, r19
    2250:	bc430020 	blti	r3, 32		// 2270
    2254:	e0b30000 	lbui	r5, r19, 0
    2258:	3273ffff 	addik	r19, r19, -1
    225c:	b0000000 	imm	0
    2260:	b9f40638 	brlid	r15, 1592	// 2898 <outbyte>
    2264:	90a50060 	sext8	r5, r5
    2268:	14799803 	cmpu	r3, r25, r19
    226c:	bca3ffe8 	bgei	r3, -24		// 2254
    2270:	e8ba0014 	lwi	r5, r26, 20
    2274:	b9f4fdcc 	brlid	r15, -564	// 2040 <padding>
    2278:	10da0000 	addk	r6, r26, r0
    227c:	e9e10000 	lwi	r15, r1, 0
    2280:	ea610054 	lwi	r19, r1, 84
    2284:	eac10058 	lwi	r22, r1, 88
    2288:	eae1005c 	lwi	r23, r1, 92
    228c:	eb010060 	lwi	r24, r1, 96
    2290:	eb210064 	lwi	r25, r1, 100
    2294:	eb410068 	lwi	r26, r1, 104
    2298:	eb61006c 	lwi	r27, r1, 108
    229c:	b60f0008 	rtsd	r15, 8
    22a0:	30210070 	addik	r1, r1, 112
    22a4:	16650000 	rsubk	r19, r5, r0
    22a8:	b810fe94 	brid	-364		// 213c
    22ac:	33600001 	addik	r27, r0, 1

000022b0 <xil_printf>:
    22b0:	f8a10004 	swi	r5, r1, 4
    22b4:	f8c10008 	swi	r6, r1, 8
    22b8:	f8e1000c 	swi	r7, r1, 12
    22bc:	f9010010 	swi	r8, r1, 16
    22c0:	f9210014 	swi	r9, r1, 20
    22c4:	f9410018 	swi	r10, r1, 24
    22c8:	3021ffac 	addik	r1, r1, -84
    22cc:	fac1003c 	swi	r22, r1, 60
    22d0:	fb010044 	swi	r24, r1, 68
    22d4:	f9e10000 	swi	r15, r1, 0
    22d8:	fa610038 	swi	r19, r1, 56
    22dc:	fae10040 	swi	r23, r1, 64
    22e0:	fb210048 	swi	r25, r1, 72
    22e4:	fb41004c 	swi	r26, r1, 76
    22e8:	fb610050 	swi	r27, r1, 80
    22ec:	12c50000 	addk	r22, r5, r0
    22f0:	e0a50000 	lbui	r5, r5, 0
    22f4:	90a50060 	sext8	r5, r5
    22f8:	be050128 	beqid	r5, 296		// 2420
    22fc:	3301005c 	addik	r24, r1, 92
    2300:	33400053 	addik	r26, r0, 83
    2304:	b8100024 	brid	36		// 2328
    2308:	33600068 	addik	r27, r0, 104
    230c:	b0000000 	imm	0
    2310:	b9f40588 	brlid	r15, 1416	// 2898 <outbyte>
    2314:	12760000 	addk	r19, r22, r0
    2318:	e0b30001 	lbui	r5, r19, 1
    231c:	90a50060 	sext8	r5, r5
    2320:	be050100 	beqid	r5, 256		// 2420
    2324:	32d30001 	addik	r22, r19, 1
    2328:	a8650025 	xori	r3, r5, 37
    232c:	be23ffe0 	bneid	r3, -32		// 230c
    2330:	30807fff 	addik	r4, r0, 32767
    2334:	e0b60001 	lbui	r5, r22, 1
    2338:	b0000000 	imm	0
    233c:	e8c08b24 	lwi	r6, r0, -29916	// 8b24 <__ctype_ptr__>
    2340:	12e30000 	addk	r23, r3, r0
    2344:	90a50060 	sext8	r5, r5
    2348:	f861002c 	swi	r3, r1, 44
    234c:	f8610030 	swi	r3, r1, 48
    2350:	30600020 	addik	r3, r0, 32	// 20 <_vector_hw_exception>
    2354:	f8810024 	swi	r4, r1, 36
    2358:	f0610028 	sbi	r3, r1, 40
    235c:	10862800 	addk	r4, r6, r5
    2360:	e0640001 	lbui	r3, r4, 1
    2364:	a4830004 	andi	r4, r3, 4
    2368:	be040060 	beqid	r4, 96		// 23c8
    236c:	32760001 	addik	r19, r22, 1
    2370:	be1702bc 	beqid	r23, 700		// 262c
    2374:	a8650030 	xori	r3, r5, 48
    2378:	10600000 	addk	r3, r0, r0
    237c:	e0930001 	lbui	r4, r19, 1
    2380:	3105ffd0 	addik	r8, r5, -48
    2384:	10e31800 	addk	r7, r3, r3
    2388:	90a40060 	sext8	r5, r4
    238c:	10862800 	addk	r4, r6, r5
    2390:	e1240001 	lbui	r9, r4, 1
    2394:	10e73800 	addk	r7, r7, r7
    2398:	10671800 	addk	r3, r7, r3
    239c:	10631800 	addk	r3, r3, r3
    23a0:	a4e90004 	andi	r7, r9, 4
    23a4:	10634000 	addk	r3, r3, r8
    23a8:	be27ffd4 	bneid	r7, -44		// 237c
    23ac:	32730001 	addik	r19, r19, 1
    23b0:	f8610024 	swi	r3, r1, 36
    23b4:	32d3ffff 	addik	r22, r19, -1
    23b8:	e0640001 	lbui	r3, r4, 1
    23bc:	a4830004 	andi	r4, r3, 4
    23c0:	be24ffb0 	bneid	r4, -80		// 2370
    23c4:	32760001 	addik	r19, r22, 1
    23c8:	a4630003 	andi	r3, r3, 3
    23cc:	a8830001 	xori	r4, r3, 1
    23d0:	be0402d0 	beqid	r4, 720		// 26a0
    23d4:	10650000 	addk	r3, r5, r0
    23d8:	3063ffdb 	addik	r3, r3, -37
    23dc:	1483d003 	cmpu	r4, r3, r26
    23e0:	be44ff38 	bltid	r4, -200		// 2318
    23e4:	10631800 	addk	r3, r3, r3
    23e8:	10631800 	addk	r3, r3, r3
    23ec:	b0000000 	imm	0
    23f0:	30637184 	addik	r3, r3, 29060
    23f4:	e8630000 	lwi	r3, r3, 0
    23f8:	98081800 	bra	r3
    23fc:	e8b80000 	lwi	r5, r24, 0
    2400:	30c00010 	addik	r6, r0, 16	// 10 <_vector_interrupt>
    2404:	30e1001c 	addik	r7, r1, 28
    2408:	b9f4fcb0 	brlid	r15, -848	// 20b8 <outnum>
    240c:	33180004 	addik	r24, r24, 4
    2410:	e0b30001 	lbui	r5, r19, 1
    2414:	90a50060 	sext8	r5, r5
    2418:	be25ff10 	bneid	r5, -240		// 2328
    241c:	32d30001 	addik	r22, r19, 1
    2420:	e9e10000 	lwi	r15, r1, 0
    2424:	ea610038 	lwi	r19, r1, 56
    2428:	eac1003c 	lwi	r22, r1, 60
    242c:	eae10040 	lwi	r23, r1, 64
    2430:	eb010044 	lwi	r24, r1, 68
    2434:	eb210048 	lwi	r25, r1, 72
    2438:	eb41004c 	lwi	r26, r1, 76
    243c:	eb610050 	lwi	r27, r1, 80
    2440:	b60f0008 	rtsd	r15, 8
    2444:	30210054 	addik	r1, r1, 84
    2448:	ead80000 	lwi	r22, r24, 0
    244c:	33180004 	addik	r24, r24, 4
    2450:	b0000000 	imm	0
    2454:	b9f44808 	brlid	r15, 18440	// 6c5c <strlen>
    2458:	10b60000 	addk	r5, r22, r0
    245c:	e8810030 	lwi	r4, r1, 48
    2460:	30c1001c 	addik	r6, r1, 28
    2464:	f861001c 	swi	r3, r1, 28
    2468:	14a40000 	rsubk	r5, r4, r0
    246c:	80a52000 	or	r5, r5, r4
    2470:	a8a5ffff 	xori	r5, r5, -1
    2474:	10802800 	addk	r4, r0, r5
    2478:	90850041 	srl	r4, r5
    247c:	90840041 	srl	r4, r4
    2480:	90840041 	srl	r4, r4
    2484:	90840041 	srl	r4, r4
    2488:	90840041 	srl	r4, r4
    248c:	90840041 	srl	r4, r4
    2490:	90840041 	srl	r4, r4
    2494:	90840041 	srl	r4, r4
    2498:	90840041 	srl	r4, r4
    249c:	90840041 	srl	r4, r4
    24a0:	90840041 	srl	r4, r4
    24a4:	90840041 	srl	r4, r4
    24a8:	90840041 	srl	r4, r4
    24ac:	90840041 	srl	r4, r4
    24b0:	90840041 	srl	r4, r4
    24b4:	90840041 	srl	r4, r4
    24b8:	90840041 	srl	r4, r4
    24bc:	90840041 	srl	r4, r4
    24c0:	90840041 	srl	r4, r4
    24c4:	90840041 	srl	r4, r4
    24c8:	90840041 	srl	r4, r4
    24cc:	90840041 	srl	r4, r4
    24d0:	90840041 	srl	r4, r4
    24d4:	90840041 	srl	r4, r4
    24d8:	90840041 	srl	r4, r4
    24dc:	90840041 	srl	r4, r4
    24e0:	90840041 	srl	r4, r4
    24e4:	90840041 	srl	r4, r4
    24e8:	90840041 	srl	r4, r4
    24ec:	90840041 	srl	r4, r4
    24f0:	90840041 	srl	r4, r4
    24f4:	10a40000 	addk	r5, r4, r0
    24f8:	b9f4fb48 	brlid	r15, -1208	// 2040 <padding>
    24fc:	f8810034 	swi	r4, r1, 52
    2500:	e0760000 	lbui	r3, r22, 0
    2504:	be03004c 	beqid	r3, 76		// 2550
    2508:	e8610024 	lwi	r3, r1, 36
    250c:	3083ffff 	addik	r4, r3, -1
    2510:	be230020 	bneid	r3, 32		// 2530
    2514:	f8810024 	swi	r4, r1, 36
    2518:	b810003c 	brid	60		// 2554
    251c:	e8a10030 	lwi	r5, r1, 48
    2520:	3083ffff 	addik	r4, r3, -1
    2524:	be03002c 	beqid	r3, 44		// 2550
    2528:	f8810024 	swi	r4, r1, 36
    252c:	12d70000 	addk	r22, r23, r0
    2530:	e0b60000 	lbui	r5, r22, 0
    2534:	32f60001 	addik	r23, r22, 1
    2538:	b0000000 	imm	0
    253c:	b9f4035c 	brlid	r15, 860	// 2898 <outbyte>
    2540:	90a50060 	sext8	r5, r5
    2544:	e0760001 	lbui	r3, r22, 1
    2548:	be23ffd8 	bneid	r3, -40		// 2520
    254c:	e8610024 	lwi	r3, r1, 36
    2550:	e8a10030 	lwi	r5, r1, 48
    2554:	b9f4faec 	brlid	r15, -1300	// 2040 <padding>
    2558:	30c1001c 	addik	r6, r1, 28
    255c:	b810fdc0 	brid	-576		// 231c
    2560:	e0b30001 	lbui	r5, r19, 1
    2564:	e0b60002 	lbui	r5, r22, 2
    2568:	12d30000 	addk	r22, r19, r0
    256c:	90a50060 	sext8	r5, r5
    2570:	b810fdf0 	brid	-528		// 2360
    2574:	10862800 	addk	r4, r6, r5
    2578:	e8b80000 	lwi	r5, r24, 0
    257c:	30c0000a 	addik	r6, r0, 10
    2580:	30e1001c 	addik	r7, r1, 28
    2584:	b9f4fb34 	brlid	r15, -1228	// 20b8 <outnum>
    2588:	33180004 	addik	r24, r24, 4
    258c:	b810fe88 	brid	-376		// 2414
    2590:	e0b30001 	lbui	r5, r19, 1
    2594:	e8b80000 	lwi	r5, r24, 0
    2598:	33180004 	addik	r24, r24, 4
    259c:	b0000000 	imm	0
    25a0:	b9f402f8 	brlid	r15, 760	// 2898 <outbyte>
    25a4:	90a50060 	sext8	r5, r5
    25a8:	b810fd74 	brid	-652		// 231c
    25ac:	e0b30001 	lbui	r5, r19, 1
    25b0:	a8650068 	xori	r3, r5, 104
    25b4:	be23012c 	bneid	r3, 300		// 26e0
    25b8:	1465d801 	cmp	r3, r5, r27
    25bc:	b0000000 	imm	0
    25c0:	b9f402d8 	brlid	r15, 728	// 2898 <outbyte>
    25c4:	30a00008 	addik	r5, r0, 8	// 8 <_vector_sw_exception>
    25c8:	e0b60003 	lbui	r5, r22, 3
    25cc:	b0000000 	imm	0
    25d0:	e8c08b24 	lwi	r6, r0, -29916	// 8b24 <__ctype_ptr__>
    25d4:	32d60002 	addik	r22, r22, 2
    25d8:	90a50060 	sext8	r5, r5
    25dc:	b810fd84 	brid	-636		// 2360
    25e0:	10862800 	addk	r4, r6, r5
    25e4:	e0b60002 	lbui	r5, r22, 2
    25e8:	32e00001 	addik	r23, r0, 1
    25ec:	12d30000 	addk	r22, r19, r0
    25f0:	90a50060 	sext8	r5, r5
    25f4:	b810fd6c 	brid	-660		// 2360
    25f8:	10862800 	addk	r4, r6, r5
    25fc:	e0b60002 	lbui	r5, r22, 2
    2600:	30600001 	addik	r3, r0, 1
    2604:	f8610030 	swi	r3, r1, 48
    2608:	90a50060 	sext8	r5, r5
    260c:	12d30000 	addk	r22, r19, r0
    2610:	b810fd50 	brid	-688		// 2360
    2614:	10862800 	addk	r4, r6, r5
    2618:	b0000000 	imm	0
    261c:	b9f4027c 	brlid	r15, 636	// 2898 <outbyte>
    2620:	30a00025 	addik	r5, r0, 37
    2624:	b810fcf8 	brid	-776		// 231c
    2628:	e0b30001 	lbui	r5, r19, 1
    262c:	be03007c 	beqid	r3, 124		// 26a8
    2630:	30600030 	addik	r3, r0, 48
    2634:	e0960001 	lbui	r4, r22, 1
    2638:	90840060 	sext8	r4, r4
    263c:	10662000 	addk	r3, r6, r4
    2640:	e0630001 	lbui	r3, r3, 1
    2644:	a4630004 	andi	r3, r3, 4
    2648:	bc03007c 	beqi	r3, 124		// 26c4
    264c:	10600000 	addk	r3, r0, r0
    2650:	e1130001 	lbui	r8, r19, 1
    2654:	30e4ffd0 	addik	r7, r4, -48
    2658:	10a31800 	addk	r5, r3, r3
    265c:	90880060 	sext8	r4, r8
    2660:	11062000 	addk	r8, r6, r4
    2664:	e1080001 	lbui	r8, r8, 1
    2668:	10a52800 	addk	r5, r5, r5
    266c:	10651800 	addk	r3, r5, r3
    2670:	10631800 	addk	r3, r3, r3
    2674:	a4a80004 	andi	r5, r8, 4
    2678:	10633800 	addk	r3, r3, r7
    267c:	be25ffd4 	bneid	r5, -44		// 2650
    2680:	32730001 	addik	r19, r19, 1
    2684:	10a40000 	addk	r5, r4, r0
    2688:	30800001 	addik	r4, r0, 1
    268c:	f881002c 	swi	r4, r1, 44
    2690:	f8610020 	swi	r3, r1, 32
    2694:	10862800 	addk	r4, r6, r5
    2698:	b810fd20 	brid	-736		// 23b8
    269c:	32d3ffff 	addik	r22, r19, -1
    26a0:	b810fd38 	brid	-712		// 23d8
    26a4:	30650020 	addik	r3, r5, 32
    26a8:	e0960001 	lbui	r4, r22, 1
    26ac:	f0610028 	sbi	r3, r1, 40
    26b0:	90840060 	sext8	r4, r4
    26b4:	10662000 	addk	r3, r6, r4
    26b8:	e0630001 	lbui	r3, r3, 1
    26bc:	a4630004 	andi	r3, r3, 4
    26c0:	bc23ff8c 	bnei	r3, -116		// 264c
    26c4:	10850000 	addk	r4, r5, r0
    26c8:	f8610020 	swi	r3, r1, 32
    26cc:	10a40000 	addk	r5, r4, r0
    26d0:	30800001 	addik	r4, r0, 1
    26d4:	f881002c 	swi	r4, r1, 44
    26d8:	b810ffc0 	brid	-64		// 2698
    26dc:	10862800 	addk	r4, r6, r5
    26e0:	be430020 	bltid	r3, 32		// 2700
    26e4:	a8650061 	xori	r3, r5, 97
    26e8:	bc230028 	bnei	r3, 40		// 2710
    26ec:	b0000000 	imm	0
    26f0:	b9f401a8 	brlid	r15, 424	// 2898 <outbyte>
    26f4:	30a00007 	addik	r5, r0, 7
    26f8:	b810fed4 	brid	-300		// 25cc
    26fc:	e0b60003 	lbui	r5, r22, 3
    2700:	a865006e 	xori	r3, r5, 110
    2704:	be030034 	beqid	r3, 52		// 2738
    2708:	a8650072 	xori	r3, r5, 114
    270c:	bc030018 	beqi	r3, 24		// 2724
    2710:	b0000000 	imm	0
    2714:	b9f40184 	brlid	r15, 388	// 2898 <outbyte>
    2718:	80000000 	or	r0, r0, r0
    271c:	b810feb0 	brid	-336		// 25cc
    2720:	e0b60003 	lbui	r5, r22, 3
    2724:	b0000000 	imm	0
    2728:	b9f40170 	brlid	r15, 368	// 2898 <outbyte>
    272c:	30a0000d 	addik	r5, r0, 13
    2730:	b810fe9c 	brid	-356		// 25cc
    2734:	e0b60003 	lbui	r5, r22, 3
    2738:	b0000000 	imm	0
    273c:	b9f4015c 	brlid	r15, 348	// 2898 <outbyte>
    2740:	30a0000d 	addik	r5, r0, 13
    2744:	b0000000 	imm	0
    2748:	b9f40150 	brlid	r15, 336	// 2898 <outbyte>
    274c:	30a0000a 	addik	r5, r0, 10
    2750:	b810fe7c 	brid	-388		// 25cc
    2754:	e0b60003 	lbui	r5, r22, 3

00002758 <_exception_handler>:
    2758:	98089000 	bra	r18

0000275c <_program_clean>:
    275c:	b60f0008 	rtsd	r15, 8
    2760:	80000000 	or	r0, r0, r0

00002764 <_program_init>:
    2764:	b60f0008 	rtsd	r15, 8
    2768:	80000000 	or	r0, r0, r0

0000276c <_hw_exception_handler>:
    276c:	b8000000 	bri	0	// 276c <_hw_exception_handler>

00002770 <microblaze_disable_interrupts>:
    2770:	2021fffc 	addi	r1, r1, -4
    2774:	f9810000 	swi	r12, r1, 0
    2778:	95808001 	mfs	r12, rmsr
    277c:	a58cfffd 	andi	r12, r12, -3
    2780:	940cc001 	mts	rmsr, r12
    2784:	e9810000 	lwi	r12, r1, 0
    2788:	b60f0008 	rtsd	r15, 8
    278c:	20210004 	addi	r1, r1, 4

00002790 <microblaze_enable_dcache>:
    2790:	2021fffc 	addi	r1, r1, -4
    2794:	95008001 	mfs	r8, rmsr
    2798:	a1080080 	ori	r8, r8, 128
    279c:	9408c001 	mts	rmsr, r8
    27a0:	b60f0008 	rtsd	r15, 8
    27a4:	20210004 	addi	r1, r1, 4

000027a8 <microblaze_enable_icache>:
    27a8:	2021fffc 	addi	r1, r1, -4
    27ac:	95008001 	mfs	r8, rmsr
    27b0:	a1080020 	ori	r8, r8, 32
    27b4:	9408c001 	mts	rmsr, r8
    27b8:	b60f0008 	rtsd	r15, 8
    27bc:	20210004 	addi	r1, r1, 4

000027c0 <microblaze_enable_interrupts>:
    27c0:	2021fffc 	addi	r1, r1, -4
    27c4:	f9810000 	swi	r12, r1, 0
    27c8:	95808001 	mfs	r12, rmsr
    27cc:	a18c0002 	ori	r12, r12, 2
    27d0:	940cc001 	mts	rmsr, r12
    27d4:	e9810000 	lwi	r12, r1, 0
    27d8:	b60f0008 	rtsd	r15, 8
    27dc:	20210004 	addi	r1, r1, 4

000027e0 <__interrupt_handler>:
    27e0:	3021ffac 	addik	r1, r1, -84
    27e4:	f9e10000 	swi	r15, r1, 0
    27e8:	f8210020 	swi	r1, r1, 32
    27ec:	f8610024 	swi	r3, r1, 36
    27f0:	f8810028 	swi	r4, r1, 40
    27f4:	f8a1002c 	swi	r5, r1, 44
    27f8:	f8c10030 	swi	r6, r1, 48
    27fc:	f8e10034 	swi	r7, r1, 52
    2800:	f9010038 	swi	r8, r1, 56
    2804:	f921003c 	swi	r9, r1, 60
    2808:	f9410040 	swi	r10, r1, 64
    280c:	b0000000 	imm	0
    2810:	306089d0 	addik	r3, r0, -30256	// 89d0 <MB_InterruptVectorTable>
    2814:	f9610044 	swi	r11, r1, 68
    2818:	f9810048 	swi	r12, r1, 72
    281c:	fa21004c 	swi	r17, r1, 76
    2820:	95608001 	mfs	r11, rmsr
    2824:	e8830000 	lwi	r4, r3, 0
    2828:	e8a30004 	lwi	r5, r3, 4
    282c:	fa410050 	swi	r18, r1, 80
    2830:	f961001c 	swi	r11, r1, 28
    2834:	99fc2000 	brald	r15, r4
    2838:	80000000 	or	r0, r0, r0
    283c:	e9e10000 	lwi	r15, r1, 0
    2840:	e961001c 	lwi	r11, r1, 28
    2844:	e8210020 	lwi	r1, r1, 32
    2848:	940bc001 	mts	rmsr, r11
    284c:	e8610024 	lwi	r3, r1, 36
    2850:	e8810028 	lwi	r4, r1, 40
    2854:	e8a1002c 	lwi	r5, r1, 44
    2858:	e8c10030 	lwi	r6, r1, 48
    285c:	e8e10034 	lwi	r7, r1, 52
    2860:	e9010038 	lwi	r8, r1, 56
    2864:	e921003c 	lwi	r9, r1, 60
    2868:	e9410040 	lwi	r10, r1, 64
    286c:	e9610044 	lwi	r11, r1, 68
    2870:	e9810048 	lwi	r12, r1, 72
    2874:	ea21004c 	lwi	r17, r1, 76
    2878:	ea410050 	lwi	r18, r1, 80
    287c:	b62e0000 	rtid	r14, 0
    2880:	30210054 	addik	r1, r1, 84

00002884 <microblaze_register_handler>:
    2884:	b0000000 	imm	0
    2888:	306089d0 	addik	r3, r0, -30256	// 89d0 <MB_InterruptVectorTable>
    288c:	f8a30000 	swi	r5, r3, 0
    2890:	b60f0008 	rtsd	r15, 8
    2894:	f8c30004 	swi	r6, r3, 4

00002898 <outbyte>:
    2898:	a4c500ff 	andi	r6, r5, 255
    289c:	b0008000 	imm	-32768
    28a0:	30a00000 	addik	r5, r0, 0
    28a4:	3021ffe4 	addik	r1, r1, -28
    28a8:	f9e10000 	swi	r15, r1, 0
    28ac:	b0000000 	imm	0
    28b0:	b9f41bcc 	brlid	r15, 7116	// 447c <XIOModule_SendByte>
    28b4:	80000000 	or	r0, r0, r0
    28b8:	e9e10000 	lwi	r15, r1, 0
    28bc:	b60f0008 	rtsd	r15, 8
    28c0:	3021001c 	addik	r1, r1, 28

000028c4 <Xil_DCacheDisable>:
    28c4:	3021ffe4 	addik	r1, r1, -28
    28c8:	f9e10000 	swi	r15, r1, 0
    28cc:	b0000000 	imm	0
    28d0:	b9f41ea4 	brlid	r15, 7844	// 4774 <microblaze_flush_dcache>
    28d4:	80000000 	or	r0, r0, r0
    28d8:	b0000000 	imm	0
    28dc:	b9f41ec4 	brlid	r15, 7876	// 47a0 <microblaze_invalidate_dcache>
    28e0:	80000000 	or	r0, r0, r0
    28e4:	b0000000 	imm	0
    28e8:	b9f41e5c 	brlid	r15, 7772	// 4744 <microblaze_disable_dcache>
    28ec:	80000000 	or	r0, r0, r0
    28f0:	e9e10000 	lwi	r15, r1, 0
    28f4:	b60f0008 	rtsd	r15, 8
    28f8:	3021001c 	addik	r1, r1, 28

000028fc <Xil_ICacheDisable>:
    28fc:	3021ffe4 	addik	r1, r1, -28
    2900:	f9e10000 	swi	r15, r1, 0
    2904:	b0000000 	imm	0
    2908:	b9f41ec4 	brlid	r15, 7876	// 47cc <microblaze_invalidate_icache>
    290c:	80000000 	or	r0, r0, r0
    2910:	b0000000 	imm	0
    2914:	b9f41e48 	brlid	r15, 7752	// 475c <microblaze_disable_icache>
    2918:	80000000 	or	r0, r0, r0
    291c:	e9e10000 	lwi	r15, r1, 0
    2920:	b60f0008 	rtsd	r15, 8
    2924:	3021001c 	addik	r1, r1, 28

00002928 <StubHandler>:
    2928:	3021ffe4 	addik	r1, r1, -28
    292c:	be050028 	beqid	r5, 40		// 2954
    2930:	f9e10000 	swi	r15, r1, 0
    2934:	e8650058 	lwi	r3, r5, 88
    2938:	b0000000 	imm	0
    293c:	f8008de4 	swi	r0, r0, -29212	// 8de4 <XAssertStatus>
    2940:	30630001 	addik	r3, r3, 1
    2944:	f8650058 	swi	r3, r5, 88
    2948:	e9e10000 	lwi	r15, r1, 0
    294c:	b60f0008 	rtsd	r15, 8
    2950:	3021001c 	addik	r1, r1, 28
    2954:	b0000000 	imm	0
    2958:	30a072d4 	addik	r5, r0, 29396
    295c:	b0000000 	imm	0
    2960:	b9f41d94 	brlid	r15, 7572	// 46f4 <XAssert>
    2964:	30c00232 	addik	r6, r0, 562
    2968:	e9e10000 	lwi	r15, r1, 0
    296c:	30600001 	addik	r3, r0, 1
    2970:	b0000000 	imm	0
    2974:	f8608de4 	swi	r3, r0, -29212	// 8de4 <XAssertStatus>
    2978:	b60f0008 	rtsd	r15, 8
    297c:	3021001c 	addik	r1, r1, 28

00002980 <XIOModule_Start>:
    2980:	3021ffe4 	addik	r1, r1, -28
    2984:	be05006c 	beqid	r5, 108		// 29f0
    2988:	f9e10000 	swi	r15, r1, 0
    298c:	e8650004 	lwi	r3, r5, 4
    2990:	b0000000 	imm	0
    2994:	f8008de4 	swi	r0, r0, -29212	// 8de4 <XAssertStatus>
    2998:	b0001111 	imm	4369
    299c:	a8631111 	xori	r3, r3, 4369
    29a0:	bc030034 	beqi	r3, 52		// 29d4
    29a4:	b0000000 	imm	0
    29a8:	30a072d4 	addik	r5, r0, 29396
    29ac:	b0000000 	imm	0
    29b0:	b9f41d44 	brlid	r15, 7492	// 46f4 <XAssert>
    29b4:	30c00115 	addik	r6, r0, 277
    29b8:	30600001 	addik	r3, r0, 1
    29bc:	b0000000 	imm	0
    29c0:	f8608de4 	swi	r3, r0, -29212	// 8de4 <XAssertStatus>
    29c4:	e9e10000 	lwi	r15, r1, 0
    29c8:	10600000 	addk	r3, r0, r0
    29cc:	b60f0008 	rtsd	r15, 8
    29d0:	3021001c 	addik	r1, r1, 28
    29d4:	b0002222 	imm	8738
    29d8:	30602222 	addik	r3, r0, 8738
    29dc:	f8650008 	swi	r3, r5, 8
    29e0:	e9e10000 	lwi	r15, r1, 0
    29e4:	10600000 	addk	r3, r0, r0
    29e8:	b60f0008 	rtsd	r15, 8
    29ec:	3021001c 	addik	r1, r1, 28
    29f0:	b0000000 	imm	0
    29f4:	30a072d4 	addik	r5, r0, 29396
    29f8:	b0000000 	imm	0
    29fc:	b9f41cf8 	brlid	r15, 7416	// 46f4 <XAssert>
    2a00:	30c00114 	addik	r6, r0, 276
    2a04:	30600001 	addik	r3, r0, 1
    2a08:	b0000000 	imm	0
    2a0c:	f8608de4 	swi	r3, r0, -29212	// 8de4 <XAssertStatus>
    2a10:	b810ffb8 	brid	-72		// 29c8
    2a14:	e9e10000 	lwi	r15, r1, 0

00002a18 <XIOModule_Stop>:
    2a18:	3021ffe4 	addik	r1, r1, -28
    2a1c:	be05005c 	beqid	r5, 92		// 2a78
    2a20:	f9e10000 	swi	r15, r1, 0
    2a24:	e8650004 	lwi	r3, r5, 4
    2a28:	b0000000 	imm	0
    2a2c:	f8008de4 	swi	r0, r0, -29212	// 8de4 <XAssertStatus>
    2a30:	b0001111 	imm	4369
    2a34:	a8631111 	xori	r3, r3, 4369
    2a38:	bc030030 	beqi	r3, 48		// 2a68
    2a3c:	b0000000 	imm	0
    2a40:	30a072d4 	addik	r5, r0, 29396
    2a44:	b0000000 	imm	0
    2a48:	b9f41cac 	brlid	r15, 7340	// 46f4 <XAssert>
    2a4c:	30c00134 	addik	r6, r0, 308
    2a50:	30600001 	addik	r3, r0, 1
    2a54:	b0000000 	imm	0
    2a58:	f8608de4 	swi	r3, r0, -29212	// 8de4 <XAssertStatus>
    2a5c:	e9e10000 	lwi	r15, r1, 0
    2a60:	b60f0008 	rtsd	r15, 8
    2a64:	3021001c 	addik	r1, r1, 28
    2a68:	f8650008 	swi	r3, r5, 8
    2a6c:	e9e10000 	lwi	r15, r1, 0
    2a70:	b60f0008 	rtsd	r15, 8
    2a74:	3021001c 	addik	r1, r1, 28
    2a78:	b0000000 	imm	0
    2a7c:	30a072d4 	addik	r5, r0, 29396
    2a80:	b0000000 	imm	0
    2a84:	b9f41c70 	brlid	r15, 7280	// 46f4 <XAssert>
    2a88:	30c00133 	addik	r6, r0, 307
    2a8c:	30600001 	addik	r3, r0, 1
    2a90:	b0000000 	imm	0
    2a94:	f8608de4 	swi	r3, r0, -29212	// 8de4 <XAssertStatus>
    2a98:	b810ffc8 	brid	-56		// 2a60
    2a9c:	e9e10000 	lwi	r15, r1, 0

00002aa0 <XIOModule_Connect>:
    2aa0:	3021ffe4 	addik	r1, r1, -28
    2aa4:	be0500cc 	beqid	r5, 204		// 2b70
    2aa8:	f9e10000 	swi	r15, r1, 0
    2aac:	b0000000 	imm	0
    2ab0:	f8008de4 	swi	r0, r0, -29212	// 8de4 <XAssertStatus>
    2ab4:	3060001f 	addik	r3, r0, 31
    2ab8:	16461803 	cmpu	r18, r6, r3
    2abc:	bc520084 	blti	r18, 132		// 2b40
    2ac0:	bc0700d8 	beqi	r7, 216		// 2b98
    2ac4:	e8650004 	lwi	r3, r5, 4
    2ac8:	b0001111 	imm	4369
    2acc:	a8631111 	xori	r3, r3, 4369
    2ad0:	be030038 	beqid	r3, 56		// 2b08
    2ad4:	10863000 	addk	r4, r6, r6
    2ad8:	b0000000 	imm	0
    2adc:	30a072d4 	addik	r5, r0, 29396
    2ae0:	b0000000 	imm	0
    2ae4:	b9f41c10 	brlid	r15, 7184	// 46f4 <XAssert>
    2ae8:	30c0015d 	addik	r6, r0, 349
    2aec:	30600001 	addik	r3, r0, 1
    2af0:	b0000000 	imm	0
    2af4:	f8608de4 	swi	r3, r0, -29212	// 8de4 <XAssertStatus>
    2af8:	e9e10000 	lwi	r15, r1, 0
    2afc:	10600000 	addk	r3, r0, r0
    2b00:	b60f0008 	rtsd	r15, 8
    2b04:	3021001c 	addik	r1, r1, 28
    2b08:	e865000c 	lwi	r3, r5, 12
    2b0c:	30c60009 	addik	r6, r6, 9
    2b10:	10842000 	addk	r4, r4, r4
    2b14:	10c63000 	addk	r6, r6, r6
    2b18:	10842000 	addk	r4, r4, r4
    2b1c:	10c63000 	addk	r6, r6, r6
    2b20:	10832000 	addk	r4, r3, r4
    2b24:	10c63000 	addk	r6, r6, r6
    2b28:	d9061800 	sw	r8, r6, r3
    2b2c:	f8e40044 	swi	r7, r4, 68
    2b30:	e9e10000 	lwi	r15, r1, 0
    2b34:	10600000 	addk	r3, r0, r0
    2b38:	b60f0008 	rtsd	r15, 8
    2b3c:	3021001c 	addik	r1, r1, 28
    2b40:	b0000000 	imm	0
    2b44:	30a072d4 	addik	r5, r0, 29396
    2b48:	b0000000 	imm	0
    2b4c:	b9f41ba8 	brlid	r15, 7080	// 46f4 <XAssert>
    2b50:	30c0015b 	addik	r6, r0, 347
    2b54:	e9e10000 	lwi	r15, r1, 0
    2b58:	30600001 	addik	r3, r0, 1
    2b5c:	b0000000 	imm	0
    2b60:	f8608de4 	swi	r3, r0, -29212	// 8de4 <XAssertStatus>
    2b64:	10600000 	addk	r3, r0, r0
    2b68:	b60f0008 	rtsd	r15, 8
    2b6c:	3021001c 	addik	r1, r1, 28
    2b70:	b0000000 	imm	0
    2b74:	30a072d4 	addik	r5, r0, 29396
    2b78:	b0000000 	imm	0
    2b7c:	b9f41b78 	brlid	r15, 7032	// 46f4 <XAssert>
    2b80:	30c0015a 	addik	r6, r0, 346
    2b84:	30600001 	addik	r3, r0, 1
    2b88:	b0000000 	imm	0
    2b8c:	f8608de4 	swi	r3, r0, -29212	// 8de4 <XAssertStatus>
    2b90:	b810ff6c 	brid	-148		// 2afc
    2b94:	e9e10000 	lwi	r15, r1, 0
    2b98:	b0000000 	imm	0
    2b9c:	30a072d4 	addik	r5, r0, 29396
    2ba0:	b0000000 	imm	0
    2ba4:	b9f41b50 	brlid	r15, 6992	// 46f4 <XAssert>
    2ba8:	30c0015c 	addik	r6, r0, 348
    2bac:	30600001 	addik	r3, r0, 1
    2bb0:	b0000000 	imm	0
    2bb4:	f8608de4 	swi	r3, r0, -29212	// 8de4 <XAssertStatus>
    2bb8:	b810ff44 	brid	-188		// 2afc
    2bbc:	e9e10000 	lwi	r15, r1, 0

00002bc0 <XIOModule_Disconnect>:
    2bc0:	3021ffe4 	addik	r1, r1, -28
    2bc4:	be0500e8 	beqid	r5, 232		// 2cac
    2bc8:	f9e10000 	swi	r15, r1, 0
    2bcc:	b0000000 	imm	0
    2bd0:	f8008de4 	swi	r0, r0, -29212	// 8de4 <XAssertStatus>
    2bd4:	3060001f 	addik	r3, r0, 31
    2bd8:	16461803 	cmpu	r18, r6, r3
    2bdc:	bc5200a4 	blti	r18, 164		// 2c80
    2be0:	e8650004 	lwi	r3, r5, 4
    2be4:	b0001111 	imm	4369
    2be8:	a8631111 	xori	r3, r3, 4369
    2bec:	be030034 	beqid	r3, 52		// 2c20
    2bf0:	10663000 	addk	r3, r6, r6
    2bf4:	b0000000 	imm	0
    2bf8:	30a072d4 	addik	r5, r0, 29396
    2bfc:	b0000000 	imm	0
    2c00:	b9f41af4 	brlid	r15, 6900	// 46f4 <XAssert>
    2c04:	30c00184 	addik	r6, r0, 388
    2c08:	30600001 	addik	r3, r0, 1
    2c0c:	b0000000 	imm	0
    2c10:	f8608de4 	swi	r3, r0, -29212	// 8de4 <XAssertStatus>
    2c14:	e9e10000 	lwi	r15, r1, 0
    2c18:	b60f0008 	rtsd	r15, 8
    2c1c:	3021001c 	addik	r1, r1, 28
    2c20:	10631800 	addk	r3, r3, r3
    2c24:	b0000000 	imm	0
    2c28:	30838d64 	addik	r4, r3, -29340
    2c2c:	e8840000 	lwi	r4, r4, 0
    2c30:	e925005c 	lwi	r9, r5, 92
    2c34:	e9050000 	lwi	r8, r5, 0
    2c38:	a884ffff 	xori	r4, r4, -1
    2c3c:	84844800 	and	r4, r4, r9
    2c40:	e8e5000c 	lwi	r7, r5, 12
    2c44:	30c60009 	addik	r6, r6, 9
    2c48:	f8880038 	swi	r4, r8, 56
    2c4c:	f885005c 	swi	r4, r5, 92
    2c50:	10c63000 	addk	r6, r6, r6
    2c54:	b0000000 	imm	0
    2c58:	30802928 	addik	r4, r0, 10536	// 2928 <StubHandler>
    2c5c:	10631800 	addk	r3, r3, r3
    2c60:	10c63000 	addk	r6, r6, r6
    2c64:	10671800 	addk	r3, r7, r3
    2c68:	10c63000 	addk	r6, r6, r6
    2c6c:	f8830044 	swi	r4, r3, 68
    2c70:	d8a63800 	sw	r5, r6, r7
    2c74:	e9e10000 	lwi	r15, r1, 0
    2c78:	b60f0008 	rtsd	r15, 8
    2c7c:	3021001c 	addik	r1, r1, 28
    2c80:	b0000000 	imm	0
    2c84:	30a072d4 	addik	r5, r0, 29396
    2c88:	b0000000 	imm	0
    2c8c:	b9f41a68 	brlid	r15, 6760	// 46f4 <XAssert>
    2c90:	30c00183 	addik	r6, r0, 387
    2c94:	e9e10000 	lwi	r15, r1, 0
    2c98:	30800001 	addik	r4, r0, 1
    2c9c:	b0000000 	imm	0
    2ca0:	f8808de4 	swi	r4, r0, -29212	// 8de4 <XAssertStatus>
    2ca4:	b60f0008 	rtsd	r15, 8
    2ca8:	3021001c 	addik	r1, r1, 28
    2cac:	b0000000 	imm	0
    2cb0:	30a072d4 	addik	r5, r0, 29396
    2cb4:	b0000000 	imm	0
    2cb8:	b9f41a3c 	brlid	r15, 6716	// 46f4 <XAssert>
    2cbc:	30c00182 	addik	r6, r0, 386
    2cc0:	30600001 	addik	r3, r0, 1
    2cc4:	b0000000 	imm	0
    2cc8:	f8608de4 	swi	r3, r0, -29212	// 8de4 <XAssertStatus>
    2ccc:	b810ff4c 	brid	-180		// 2c18
    2cd0:	e9e10000 	lwi	r15, r1, 0

00002cd4 <XIOModule_Enable>:
    2cd4:	3021ffe4 	addik	r1, r1, -28
    2cd8:	be0500b8 	beqid	r5, 184		// 2d90
    2cdc:	f9e10000 	swi	r15, r1, 0
    2ce0:	b0000000 	imm	0
    2ce4:	f8008de4 	swi	r0, r0, -29212	// 8de4 <XAssertStatus>
    2ce8:	3060001f 	addik	r3, r0, 31
    2cec:	16461803 	cmpu	r18, r6, r3
    2cf0:	bc520074 	blti	r18, 116		// 2d64
    2cf4:	e8650004 	lwi	r3, r5, 4
    2cf8:	b0001111 	imm	4369
    2cfc:	a8631111 	xori	r3, r3, 4369
    2d00:	be030034 	beqid	r3, 52		// 2d34
    2d04:	10c63000 	addk	r6, r6, r6
    2d08:	b0000000 	imm	0
    2d0c:	30a072d4 	addik	r5, r0, 29396
    2d10:	b0000000 	imm	0
    2d14:	b9f419e0 	brlid	r15, 6624	// 46f4 <XAssert>
    2d18:	30c001b6 	addik	r6, r0, 438
    2d1c:	30600001 	addik	r3, r0, 1
    2d20:	b0000000 	imm	0
    2d24:	f8608de4 	swi	r3, r0, -29212	// 8de4 <XAssertStatus>
    2d28:	e9e10000 	lwi	r15, r1, 0
    2d2c:	b60f0008 	rtsd	r15, 8
    2d30:	3021001c 	addik	r1, r1, 28
    2d34:	10c63000 	addk	r6, r6, r6
    2d38:	b0000000 	imm	0
    2d3c:	30c68d64 	addik	r6, r6, -29340
    2d40:	e8660000 	lwi	r3, r6, 0
    2d44:	e8c5005c 	lwi	r6, r5, 92
    2d48:	e8850000 	lwi	r4, r5, 0
    2d4c:	80633000 	or	r3, r3, r6
    2d50:	f8640038 	swi	r3, r4, 56
    2d54:	f865005c 	swi	r3, r5, 92
    2d58:	e9e10000 	lwi	r15, r1, 0
    2d5c:	b60f0008 	rtsd	r15, 8
    2d60:	3021001c 	addik	r1, r1, 28
    2d64:	b0000000 	imm	0
    2d68:	30a072d4 	addik	r5, r0, 29396
    2d6c:	b0000000 	imm	0
    2d70:	b9f41984 	brlid	r15, 6532	// 46f4 <XAssert>
    2d74:	30c001b5 	addik	r6, r0, 437
    2d78:	e9e10000 	lwi	r15, r1, 0
    2d7c:	30600001 	addik	r3, r0, 1
    2d80:	b0000000 	imm	0
    2d84:	f8608de4 	swi	r3, r0, -29212	// 8de4 <XAssertStatus>
    2d88:	b60f0008 	rtsd	r15, 8
    2d8c:	3021001c 	addik	r1, r1, 28
    2d90:	b0000000 	imm	0
    2d94:	30a072d4 	addik	r5, r0, 29396
    2d98:	b0000000 	imm	0
    2d9c:	b9f41958 	brlid	r15, 6488	// 46f4 <XAssert>
    2da0:	30c001b4 	addik	r6, r0, 436
    2da4:	30600001 	addik	r3, r0, 1
    2da8:	b0000000 	imm	0
    2dac:	f8608de4 	swi	r3, r0, -29212	// 8de4 <XAssertStatus>
    2db0:	b810ff7c 	brid	-132		// 2d2c
    2db4:	e9e10000 	lwi	r15, r1, 0

00002db8 <XIOModule_Disable>:
    2db8:	3021ffe4 	addik	r1, r1, -28
    2dbc:	be0500bc 	beqid	r5, 188		// 2e78
    2dc0:	f9e10000 	swi	r15, r1, 0
    2dc4:	b0000000 	imm	0
    2dc8:	f8008de4 	swi	r0, r0, -29212	// 8de4 <XAssertStatus>
    2dcc:	3060001f 	addik	r3, r0, 31
    2dd0:	16461803 	cmpu	r18, r6, r3
    2dd4:	bc520078 	blti	r18, 120		// 2e4c
    2dd8:	e8650004 	lwi	r3, r5, 4
    2ddc:	b0001111 	imm	4369
    2de0:	a8631111 	xori	r3, r3, 4369
    2de4:	be030034 	beqid	r3, 52		// 2e18
    2de8:	10c63000 	addk	r6, r6, r6
    2dec:	b0000000 	imm	0
    2df0:	30a072d4 	addik	r5, r0, 29396
    2df4:	b0000000 	imm	0
    2df8:	b9f418fc 	brlid	r15, 6396	// 46f4 <XAssert>
    2dfc:	30c001e4 	addik	r6, r0, 484
    2e00:	30600001 	addik	r3, r0, 1
    2e04:	b0000000 	imm	0
    2e08:	f8608de4 	swi	r3, r0, -29212	// 8de4 <XAssertStatus>
    2e0c:	e9e10000 	lwi	r15, r1, 0
    2e10:	b60f0008 	rtsd	r15, 8
    2e14:	3021001c 	addik	r1, r1, 28
    2e18:	10c63000 	addk	r6, r6, r6
    2e1c:	b0000000 	imm	0
    2e20:	30c68d64 	addik	r6, r6, -29340
    2e24:	e8660000 	lwi	r3, r6, 0
    2e28:	e8c5005c 	lwi	r6, r5, 92
    2e2c:	e8850000 	lwi	r4, r5, 0
    2e30:	a863ffff 	xori	r3, r3, -1
    2e34:	84633000 	and	r3, r3, r6
    2e38:	f8640038 	swi	r3, r4, 56
    2e3c:	f865005c 	swi	r3, r5, 92
    2e40:	e9e10000 	lwi	r15, r1, 0
    2e44:	b60f0008 	rtsd	r15, 8
    2e48:	3021001c 	addik	r1, r1, 28
    2e4c:	b0000000 	imm	0
    2e50:	30a072d4 	addik	r5, r0, 29396
    2e54:	b0000000 	imm	0
    2e58:	b9f4189c 	brlid	r15, 6300	// 46f4 <XAssert>
    2e5c:	30c001e3 	addik	r6, r0, 483
    2e60:	e9e10000 	lwi	r15, r1, 0
    2e64:	30600001 	addik	r3, r0, 1
    2e68:	b0000000 	imm	0
    2e6c:	f8608de4 	swi	r3, r0, -29212	// 8de4 <XAssertStatus>
    2e70:	b60f0008 	rtsd	r15, 8
    2e74:	3021001c 	addik	r1, r1, 28
    2e78:	b0000000 	imm	0
    2e7c:	30a072d4 	addik	r5, r0, 29396
    2e80:	b0000000 	imm	0
    2e84:	b9f41870 	brlid	r15, 6256	// 46f4 <XAssert>
    2e88:	30c001e2 	addik	r6, r0, 482
    2e8c:	30600001 	addik	r3, r0, 1
    2e90:	b0000000 	imm	0
    2e94:	f8608de4 	swi	r3, r0, -29212	// 8de4 <XAssertStatus>
    2e98:	b810ff78 	brid	-136		// 2e10
    2e9c:	e9e10000 	lwi	r15, r1, 0

00002ea0 <XIOModule_Acknowledge>:
    2ea0:	3021ffe4 	addik	r1, r1, -28
    2ea4:	be0500ac 	beqid	r5, 172		// 2f50
    2ea8:	f9e10000 	swi	r15, r1, 0
    2eac:	b0000000 	imm	0
    2eb0:	f8008de4 	swi	r0, r0, -29212	// 8de4 <XAssertStatus>
    2eb4:	3060001f 	addik	r3, r0, 31
    2eb8:	16461803 	cmpu	r18, r6, r3
    2ebc:	bc520068 	blti	r18, 104		// 2f24
    2ec0:	e8650004 	lwi	r3, r5, 4
    2ec4:	b0001111 	imm	4369
    2ec8:	a8631111 	xori	r3, r3, 4369
    2ecc:	be030034 	beqid	r3, 52		// 2f00
    2ed0:	10c63000 	addk	r6, r6, r6
    2ed4:	b0000000 	imm	0
    2ed8:	30a072d4 	addik	r5, r0, 29396
    2edc:	b0000000 	imm	0
    2ee0:	b9f41814 	brlid	r15, 6164	// 46f4 <XAssert>
    2ee4:	30c00210 	addik	r6, r0, 528
    2ee8:	30600001 	addik	r3, r0, 1
    2eec:	b0000000 	imm	0
    2ef0:	f8608de4 	swi	r3, r0, -29212	// 8de4 <XAssertStatus>
    2ef4:	e9e10000 	lwi	r15, r1, 0
    2ef8:	b60f0008 	rtsd	r15, 8
    2efc:	3021001c 	addik	r1, r1, 28
    2f00:	10c63000 	addk	r6, r6, r6
    2f04:	b0000000 	imm	0
    2f08:	30c68d64 	addik	r6, r6, -29340
    2f0c:	e8860000 	lwi	r4, r6, 0
    2f10:	e8650000 	lwi	r3, r5, 0
    2f14:	f883003c 	swi	r4, r3, 60
    2f18:	e9e10000 	lwi	r15, r1, 0
    2f1c:	b60f0008 	rtsd	r15, 8
    2f20:	3021001c 	addik	r1, r1, 28
    2f24:	b0000000 	imm	0
    2f28:	30a072d4 	addik	r5, r0, 29396
    2f2c:	b0000000 	imm	0
    2f30:	b9f417c4 	brlid	r15, 6084	// 46f4 <XAssert>
    2f34:	30c0020f 	addik	r6, r0, 527
    2f38:	e9e10000 	lwi	r15, r1, 0
    2f3c:	30600001 	addik	r3, r0, 1
    2f40:	b0000000 	imm	0
    2f44:	f8608de4 	swi	r3, r0, -29212	// 8de4 <XAssertStatus>
    2f48:	b60f0008 	rtsd	r15, 8
    2f4c:	3021001c 	addik	r1, r1, 28
    2f50:	b0000000 	imm	0
    2f54:	30a072d4 	addik	r5, r0, 29396
    2f58:	b0000000 	imm	0
    2f5c:	b9f41798 	brlid	r15, 6040	// 46f4 <XAssert>
    2f60:	30c0020e 	addik	r6, r0, 526
    2f64:	30600001 	addik	r3, r0, 1
    2f68:	b0000000 	imm	0
    2f6c:	f8608de4 	swi	r3, r0, -29212	// 8de4 <XAssertStatus>
    2f70:	b810ff88 	brid	-120		// 2ef8
    2f74:	e9e10000 	lwi	r15, r1, 0

00002f78 <XIOModule_LookupConfig>:
    2f78:	b0000000 	imm	0
    2f7c:	e48089d8 	lhui	r4, r0, -30248	// 89d8 <XIOModule_ConfigTable>
    2f80:	88a42800 	xor	r5, r4, r5
    2f84:	be250010 	bneid	r5, 16		// 2f94
    2f88:	10600000 	addk	r3, r0, r0
    2f8c:	b0000000 	imm	0
    2f90:	306089d8 	addik	r3, r0, -30248	// 89d8 <XIOModule_ConfigTable>
    2f94:	b60f0008 	rtsd	r15, 8
    2f98:	80000000 	or	r0, r0, r0

00002f9c <XIOModule_ConnectFastHandler>:
    2f9c:	3021ffe4 	addik	r1, r1, -28
    2fa0:	be050160 	beqid	r5, 352		// 3100
    2fa4:	f9e10000 	swi	r15, r1, 0
    2fa8:	b0000000 	imm	0
    2fac:	f8008de4 	swi	r0, r0, -29212	// 8de4 <XAssertStatus>
    2fb0:	3060001f 	addik	r3, r0, 31
    2fb4:	16461803 	cmpu	r18, r6, r3
    2fb8:	bc5200e8 	blti	r18, 232		// 30a0
    2fbc:	bc07016c 	beqi	r7, 364		// 3128
    2fc0:	e8650004 	lwi	r3, r5, 4
    2fc4:	b0001111 	imm	4369
    2fc8:	a8631111 	xori	r3, r3, 4369
    2fcc:	bc2300a4 	bnei	r3, 164		// 3070
    2fd0:	e865000c 	lwi	r3, r5, 12
    2fd4:	e883000c 	lwi	r4, r3, 12
    2fd8:	a8840001 	xori	r4, r4, 1
    2fdc:	be2400f4 	bneid	r4, 244		// 30d0
    2fe0:	10863000 	addk	r4, r6, r6
    2fe4:	11042000 	addk	r8, r4, r4
    2fe8:	b0000000 	imm	0
    2fec:	31088d64 	addik	r8, r8, -29340
    2ff0:	e9080000 	lwi	r8, r8, 0
    2ff4:	e925005c 	lwi	r9, r5, 92
    2ff8:	85484800 	and	r10, r8, r9
    2ffc:	be0a0014 	beqid	r10, 20		// 3010
    3000:	a968ffff 	xori	r11, r8, -1
    3004:	e9850000 	lwi	r12, r5, 0
    3008:	856b4800 	and	r11, r11, r9
    300c:	f96c0038 	swi	r11, r12, 56
    3010:	30c60009 	addik	r6, r6, 9
    3014:	e9850000 	lwi	r12, r5, 0
    3018:	10842000 	addk	r4, r4, r4
    301c:	10c63000 	addk	r6, r6, r6
    3020:	11642000 	addk	r11, r4, r4
    3024:	10c63000 	addk	r6, r6, r6
    3028:	11635800 	addk	r11, r3, r11
    302c:	10c63000 	addk	r6, r6, r6
    3030:	d8a61800 	sw	r5, r6, r3
    3034:	f80b0044 	swi	r0, r11, 68
    3038:	306c0080 	addik	r3, r12, 128
    303c:	d8e41800 	sw	r7, r4, r3
    3040:	e8850060 	lwi	r4, r5, 96
    3044:	e8650000 	lwi	r3, r5, 0
    3048:	81082000 	or	r8, r8, r4
    304c:	f903000c 	swi	r8, r3, 12
    3050:	be0a0040 	beqid	r10, 64		// 3090
    3054:	f9050060 	swi	r8, r5, 96
    3058:	e8650000 	lwi	r3, r5, 0
    305c:	f9230038 	swi	r9, r3, 56
    3060:	e9e10000 	lwi	r15, r1, 0
    3064:	10600000 	addk	r3, r0, r0
    3068:	b60f0008 	rtsd	r15, 8
    306c:	3021001c 	addik	r1, r1, 28
    3070:	b0000000 	imm	0
    3074:	30a072d4 	addik	r5, r0, 29396
    3078:	b0000000 	imm	0
    307c:	b9f41678 	brlid	r15, 5752	// 46f4 <XAssert>
    3080:	30c0027a 	addik	r6, r0, 634
    3084:	30600001 	addik	r3, r0, 1
    3088:	b0000000 	imm	0
    308c:	f8608de4 	swi	r3, r0, -29212	// 8de4 <XAssertStatus>
    3090:	e9e10000 	lwi	r15, r1, 0
    3094:	10600000 	addk	r3, r0, r0
    3098:	b60f0008 	rtsd	r15, 8
    309c:	3021001c 	addik	r1, r1, 28
    30a0:	b0000000 	imm	0
    30a4:	30a072d4 	addik	r5, r0, 29396
    30a8:	b0000000 	imm	0
    30ac:	b9f41648 	brlid	r15, 5704	// 46f4 <XAssert>
    30b0:	30c00278 	addik	r6, r0, 632
    30b4:	e9e10000 	lwi	r15, r1, 0
    30b8:	30600001 	addik	r3, r0, 1
    30bc:	b0000000 	imm	0
    30c0:	f8608de4 	swi	r3, r0, -29212	// 8de4 <XAssertStatus>
    30c4:	10600000 	addk	r3, r0, r0
    30c8:	b60f0008 	rtsd	r15, 8
    30cc:	3021001c 	addik	r1, r1, 28
    30d0:	b0000000 	imm	0
    30d4:	30a072d4 	addik	r5, r0, 29396
    30d8:	b0000000 	imm	0
    30dc:	b9f41618 	brlid	r15, 5656	// 46f4 <XAssert>
    30e0:	30c0027b 	addik	r6, r0, 635
    30e4:	e9e10000 	lwi	r15, r1, 0
    30e8:	30600001 	addik	r3, r0, 1
    30ec:	b0000000 	imm	0
    30f0:	f8608de4 	swi	r3, r0, -29212	// 8de4 <XAssertStatus>
    30f4:	10600000 	addk	r3, r0, r0
    30f8:	b60f0008 	rtsd	r15, 8
    30fc:	3021001c 	addik	r1, r1, 28
    3100:	b0000000 	imm	0
    3104:	30a072d4 	addik	r5, r0, 29396
    3108:	b0000000 	imm	0
    310c:	b9f415e8 	brlid	r15, 5608	// 46f4 <XAssert>
    3110:	30c00277 	addik	r6, r0, 631
    3114:	30600001 	addik	r3, r0, 1
    3118:	b0000000 	imm	0
    311c:	f8608de4 	swi	r3, r0, -29212	// 8de4 <XAssertStatus>
    3120:	b810ff74 	brid	-140		// 3094
    3124:	e9e10000 	lwi	r15, r1, 0
    3128:	b0000000 	imm	0
    312c:	30a072d4 	addik	r5, r0, 29396
    3130:	b0000000 	imm	0
    3134:	b9f415c0 	brlid	r15, 5568	// 46f4 <XAssert>
    3138:	30c00279 	addik	r6, r0, 633
    313c:	30600001 	addik	r3, r0, 1
    3140:	b0000000 	imm	0
    3144:	f8608de4 	swi	r3, r0, -29212	// 8de4 <XAssertStatus>
    3148:	b810ff4c 	brid	-180		// 3094
    314c:	e9e10000 	lwi	r15, r1, 0

00003150 <XIOModule_SetNormalIntrMode>:
    3150:	3021ffe4 	addik	r1, r1, -28
    3154:	be05016c 	beqid	r5, 364		// 32c0
    3158:	f9e10000 	swi	r15, r1, 0
    315c:	b0000000 	imm	0
    3160:	f8008de4 	swi	r0, r0, -29212	// 8de4 <XAssertStatus>
    3164:	3060001f 	addik	r3, r0, 31
    3168:	16461803 	cmpu	r18, r6, r3
    316c:	bc5200fc 	blti	r18, 252		// 3268
    3170:	e8650004 	lwi	r3, r5, 4
    3174:	b0001111 	imm	4369
    3178:	a8631111 	xori	r3, r3, 4369
    317c:	bc2300a8 	bnei	r3, 168		// 3224
    3180:	e865000c 	lwi	r3, r5, 12
    3184:	e883000c 	lwi	r4, r3, 12
    3188:	a8840001 	xori	r4, r4, 1
    318c:	be240108 	bneid	r4, 264		// 3294
    3190:	10863000 	addk	r4, r6, r6
    3194:	10e42000 	addk	r7, r4, r4
    3198:	b0000000 	imm	0
    319c:	30e78d64 	addik	r7, r7, -29340
    31a0:	e9070000 	lwi	r8, r7, 0
    31a4:	e8e5005c 	lwi	r7, r5, 92
    31a8:	85283800 	and	r9, r8, r7
    31ac:	bc2900a4 	bnei	r9, 164		// 3250
    31b0:	a908ffff 	xori	r8, r8, -1
    31b4:	e9650060 	lwi	r11, r5, 96
    31b8:	e9450000 	lwi	r10, r5, 0
    31bc:	10842000 	addk	r4, r4, r4
    31c0:	85085800 	and	r8, r8, r11
    31c4:	f90a000c 	swi	r8, r10, 12
    31c8:	e9630010 	lwi	r11, r3, 16
    31cc:	e9450000 	lwi	r10, r5, 0
    31d0:	f9050060 	swi	r8, r5, 96
    31d4:	a56bff80 	andi	r11, r11, -128
    31d8:	11042000 	addk	r8, r4, r4
    31dc:	30c60009 	addik	r6, r6, 9
    31e0:	314a0080 	addik	r10, r10, 128
    31e4:	a16b0010 	ori	r11, r11, 16
    31e8:	d9645000 	sw	r11, r4, r10
    31ec:	10c63000 	addk	r6, r6, r6
    31f0:	10834000 	addk	r4, r3, r8
    31f4:	b0000000 	imm	0
    31f8:	31002928 	addik	r8, r0, 10536	// 2928 <StubHandler>
    31fc:	10c63000 	addk	r6, r6, r6
    3200:	10c63000 	addk	r6, r6, r6
    3204:	f9040044 	swi	r8, r4, 68
    3208:	be09003c 	beqid	r9, 60		// 3244
    320c:	d8a61800 	sw	r5, r6, r3
    3210:	e8650000 	lwi	r3, r5, 0
    3214:	f8e30038 	swi	r7, r3, 56
    3218:	e9e10000 	lwi	r15, r1, 0
    321c:	b60f0008 	rtsd	r15, 8
    3220:	3021001c 	addik	r1, r1, 28
    3224:	b0000000 	imm	0
    3228:	30a072d4 	addik	r5, r0, 29396
    322c:	b0000000 	imm	0
    3230:	b9f414c4 	brlid	r15, 5316	// 46f4 <XAssert>
    3234:	30c002c5 	addik	r6, r0, 709
    3238:	30600001 	addik	r3, r0, 1
    323c:	b0000000 	imm	0
    3240:	f8608de4 	swi	r3, r0, -29212	// 8de4 <XAssertStatus>
    3244:	e9e10000 	lwi	r15, r1, 0
    3248:	b60f0008 	rtsd	r15, 8
    324c:	3021001c 	addik	r1, r1, 28
    3250:	e9650000 	lwi	r11, r5, 0
    3254:	a908ffff 	xori	r8, r8, -1
    3258:	85483800 	and	r10, r8, r7
    325c:	f94b0038 	swi	r10, r11, 56
    3260:	b810ff58 	brid	-168		// 31b8
    3264:	e9650060 	lwi	r11, r5, 96
    3268:	b0000000 	imm	0
    326c:	30a072d4 	addik	r5, r0, 29396
    3270:	b0000000 	imm	0
    3274:	b9f41480 	brlid	r15, 5248	// 46f4 <XAssert>
    3278:	30c002c4 	addik	r6, r0, 708
    327c:	e9e10000 	lwi	r15, r1, 0
    3280:	31000001 	addik	r8, r0, 1
    3284:	b0000000 	imm	0
    3288:	f9008de4 	swi	r8, r0, -29212	// 8de4 <XAssertStatus>
    328c:	b60f0008 	rtsd	r15, 8
    3290:	3021001c 	addik	r1, r1, 28
    3294:	b0000000 	imm	0
    3298:	30a072d4 	addik	r5, r0, 29396
    329c:	b0000000 	imm	0
    32a0:	b9f41454 	brlid	r15, 5204	// 46f4 <XAssert>
    32a4:	30c002c6 	addik	r6, r0, 710
    32a8:	e9e10000 	lwi	r15, r1, 0
    32ac:	31000001 	addik	r8, r0, 1
    32b0:	b0000000 	imm	0
    32b4:	f9008de4 	swi	r8, r0, -29212	// 8de4 <XAssertStatus>
    32b8:	b60f0008 	rtsd	r15, 8
    32bc:	3021001c 	addik	r1, r1, 28
    32c0:	b0000000 	imm	0
    32c4:	30a072d4 	addik	r5, r0, 29396
    32c8:	b0000000 	imm	0
    32cc:	b9f41428 	brlid	r15, 5160	// 46f4 <XAssert>
    32d0:	30c002c3 	addik	r6, r0, 707
    32d4:	30600001 	addik	r3, r0, 1
    32d8:	b0000000 	imm	0
    32dc:	f8608de4 	swi	r3, r0, -29212	// 8de4 <XAssertStatus>
    32e0:	b810ff68 	brid	-152		// 3248
    32e4:	e9e10000 	lwi	r15, r1, 0

000032e8 <XIOModule_DiscreteRead>:
    32e8:	3021ffe0 	addik	r1, r1, -32
    32ec:	fa61001c 	swi	r19, r1, 28
    32f0:	f9e10000 	swi	r15, r1, 0
    32f4:	be0500b8 	beqid	r5, 184		// 33ac
    32f8:	12650000 	addk	r19, r5, r0
    32fc:	e8650004 	lwi	r3, r5, 4
    3300:	b0000000 	imm	0
    3304:	f8008de4 	swi	r0, r0, -29212	// 8de4 <XAssertStatus>
    3308:	b0001111 	imm	4369
    330c:	a8631111 	xori	r3, r3, 4369
    3310:	be230038 	bneid	r3, 56		// 3348
    3314:	3086ffff 	addik	r4, r6, -1
    3318:	30600003 	addik	r3, r0, 3
    331c:	16441803 	cmpu	r18, r4, r3
    3320:	be52005c 	bltid	r18, 92		// 337c
    3324:	30c60007 	addik	r6, r6, 7
    3328:	e8650000 	lwi	r3, r5, 0
    332c:	10c63000 	addk	r6, r6, r6
    3330:	10c63000 	addk	r6, r6, r6
    3334:	c8633000 	lw	r3, r3, r6
    3338:	e9e10000 	lwi	r15, r1, 0
    333c:	ea61001c 	lwi	r19, r1, 28
    3340:	b60f0008 	rtsd	r15, 8
    3344:	30210020 	addik	r1, r1, 32
    3348:	b0000000 	imm	0
    334c:	30a072d4 	addik	r5, r0, 29396
    3350:	b0000000 	imm	0
    3354:	b9f413a0 	brlid	r15, 5024	// 46f4 <XAssert>
    3358:	30c00303 	addik	r6, r0, 771
    335c:	e9e10000 	lwi	r15, r1, 0
    3360:	ea61001c 	lwi	r19, r1, 28
    3364:	30600001 	addik	r3, r0, 1
    3368:	b0000000 	imm	0
    336c:	f8608de4 	swi	r3, r0, -29212	// 8de4 <XAssertStatus>
    3370:	10600000 	addk	r3, r0, r0
    3374:	b60f0008 	rtsd	r15, 8
    3378:	30210020 	addik	r1, r1, 32
    337c:	b0000000 	imm	0
    3380:	30a072d4 	addik	r5, r0, 29396
    3384:	b0000000 	imm	0
    3388:	b9f4136c 	brlid	r15, 4972	// 46f4 <XAssert>
    338c:	30c00304 	addik	r6, r0, 772
    3390:	e9e10000 	lwi	r15, r1, 0
    3394:	ea61001c 	lwi	r19, r1, 28
    3398:	30600001 	addik	r3, r0, 1
    339c:	b0000000 	imm	0
    33a0:	f8608de4 	swi	r3, r0, -29212	// 8de4 <XAssertStatus>
    33a4:	b60f0008 	rtsd	r15, 8
    33a8:	30210020 	addik	r1, r1, 32
    33ac:	b0000000 	imm	0
    33b0:	30a072d4 	addik	r5, r0, 29396
    33b4:	b0000000 	imm	0
    33b8:	b9f4133c 	brlid	r15, 4924	// 46f4 <XAssert>
    33bc:	30c00302 	addik	r6, r0, 770
    33c0:	30600001 	addik	r3, r0, 1
    33c4:	b0000000 	imm	0
    33c8:	f8608de4 	swi	r3, r0, -29212	// 8de4 <XAssertStatus>
    33cc:	b810ff6c 	brid	-148		// 3338
    33d0:	10730000 	addk	r3, r19, r0

000033d4 <XIOModule_DiscreteWrite>:
    33d4:	3021ffe4 	addik	r1, r1, -28
    33d8:	be0500b8 	beqid	r5, 184		// 3490
    33dc:	f9e10000 	swi	r15, r1, 0
    33e0:	e8650004 	lwi	r3, r5, 4
    33e4:	b0000000 	imm	0
    33e8:	f8008de4 	swi	r0, r0, -29212	// 8de4 <XAssertStatus>
    33ec:	b0001111 	imm	4369
    33f0:	a8631111 	xori	r3, r3, 4369
    33f4:	be230070 	bneid	r3, 112		// 3464
    33f8:	3086ffff 	addik	r4, r6, -1
    33fc:	30600003 	addik	r3, r0, 3
    3400:	16441803 	cmpu	r18, r4, r3
    3404:	be520034 	bltid	r18, 52		// 3438
    3408:	30660003 	addik	r3, r6, 3
    340c:	e8850000 	lwi	r4, r5, 0
    3410:	10631800 	addk	r3, r3, r3
    3414:	30c60023 	addik	r6, r6, 35
    3418:	10631800 	addk	r3, r3, r3
    341c:	10c63000 	addk	r6, r6, r6
    3420:	d8e41800 	sw	r7, r4, r3
    3424:	10c63000 	addk	r6, r6, r6
    3428:	d8e62800 	sw	r7, r6, r5
    342c:	e9e10000 	lwi	r15, r1, 0
    3430:	b60f0008 	rtsd	r15, 8
    3434:	3021001c 	addik	r1, r1, 28
    3438:	b0000000 	imm	0
    343c:	30a072d4 	addik	r5, r0, 29396
    3440:	b0000000 	imm	0
    3444:	b9f412b0 	brlid	r15, 4784	// 46f4 <XAssert>
    3448:	30c0031d 	addik	r6, r0, 797
    344c:	e9e10000 	lwi	r15, r1, 0
    3450:	30600001 	addik	r3, r0, 1
    3454:	b0000000 	imm	0
    3458:	f8608de4 	swi	r3, r0, -29212	// 8de4 <XAssertStatus>
    345c:	b60f0008 	rtsd	r15, 8
    3460:	3021001c 	addik	r1, r1, 28
    3464:	b0000000 	imm	0
    3468:	30a072d4 	addik	r5, r0, 29396
    346c:	b0000000 	imm	0
    3470:	b9f41284 	brlid	r15, 4740	// 46f4 <XAssert>
    3474:	30c0031c 	addik	r6, r0, 796
    3478:	e9e10000 	lwi	r15, r1, 0
    347c:	30600001 	addik	r3, r0, 1
    3480:	b0000000 	imm	0
    3484:	f8608de4 	swi	r3, r0, -29212	// 8de4 <XAssertStatus>
    3488:	b60f0008 	rtsd	r15, 8
    348c:	3021001c 	addik	r1, r1, 28
    3490:	b0000000 	imm	0
    3494:	30a072d4 	addik	r5, r0, 29396
    3498:	b0000000 	imm	0
    349c:	b9f41258 	brlid	r15, 4696	// 46f4 <XAssert>
    34a0:	30c0031b 	addik	r6, r0, 795
    34a4:	30600001 	addik	r3, r0, 1
    34a8:	b0000000 	imm	0
    34ac:	f8608de4 	swi	r3, r0, -29212	// 8de4 <XAssertStatus>
    34b0:	b810ff80 	brid	-128		// 3430
    34b4:	e9e10000 	lwi	r15, r1, 0

000034b8 <XIOModule_Timer_Initialize>:
    34b8:	3021ffe0 	addik	r1, r1, -32
    34bc:	fa61001c 	swi	r19, r1, 28
    34c0:	f9e10000 	swi	r15, r1, 0
    34c4:	be050034 	beqid	r5, 52		// 34f8
    34c8:	12650000 	addk	r19, r5, r0
    34cc:	b0000000 	imm	0
    34d0:	e48089d8 	lhui	r4, r0, -30248	// 89d8 <XIOModule_ConfigTable>
    34d4:	b0000000 	imm	0
    34d8:	f8008de4 	swi	r0, r0, -29212	// 8de4 <XAssertStatus>
    34dc:	88c43000 	xor	r6, r4, r6
    34e0:	be060040 	beqid	r6, 64		// 3520
    34e4:	30600002 	addik	r3, r0, 2
    34e8:	e9e10000 	lwi	r15, r1, 0
    34ec:	ea61001c 	lwi	r19, r1, 28
    34f0:	b60f0008 	rtsd	r15, 8
    34f4:	30210020 	addik	r1, r1, 32
    34f8:	b0000000 	imm	0
    34fc:	30a072d4 	addik	r5, r0, 29396
    3500:	b0000000 	imm	0
    3504:	b9f411f0 	brlid	r15, 4592	// 46f4 <XAssert>
    3508:	30c00342 	addik	r6, r0, 834
    350c:	30600001 	addik	r3, r0, 1
    3510:	b0000000 	imm	0
    3514:	f8608de4 	swi	r3, r0, -29212	// 8de4 <XAssertStatus>
    3518:	b810ffd0 	brid	-48		// 34e8
    351c:	10730000 	addk	r3, r19, r0
    3520:	30600004 	addik	r3, r0, 4
    3524:	10863000 	addk	r4, r6, r6
    3528:	10842000 	addk	r4, r4, r4
    352c:	10842000 	addk	r4, r4, r4
    3530:	10f33000 	addk	r7, r19, r6
    3534:	30a60019 	addik	r5, r6, 25
    3538:	11042000 	addk	r8, r4, r4
    353c:	e0870084 	lbui	r4, r7, 132
    3540:	10a52800 	addk	r5, r5, r5
    3544:	11252800 	addk	r9, r5, r5
    3548:	30a6001d 	addik	r5, r6, 29
    354c:	10a52800 	addk	r5, r5, r5
    3550:	a4840001 	andi	r4, r4, 1
    3554:	10a52800 	addk	r5, r5, r5
    3558:	be24003c 	bneid	r4, 60		// 3594
    355c:	3063ffff 	addik	r3, r3, -1
    3560:	b0000000 	imm	0
    3564:	e94089dc 	lwi	r10, r0, -30244
    3568:	f8930088 	swi	r4, r19, 136
    356c:	f893008c 	swi	r4, r19, 140
    3570:	f9530000 	swi	r10, r19, 0
    3574:	d8899800 	sw	r4, r9, r19
    3578:	312a0040 	addik	r9, r10, 64
    357c:	d8884800 	sw	r4, r8, r9
    3580:	e9330000 	lwi	r9, r19, 0
    3584:	d8859800 	sw	r4, r5, r19
    3588:	30a90048 	addik	r5, r9, 72
    358c:	d8882800 	sw	r4, r8, r5
    3590:	f0870084 	sbi	r4, r7, 132
    3594:	be23ff90 	bneid	r3, -112		// 3524
    3598:	30c60001 	addik	r6, r6, 1
    359c:	b0001111 	imm	4369
    35a0:	30801111 	addik	r4, r0, 4369
    35a4:	f8930004 	swi	r4, r19, 4
    35a8:	e9e10000 	lwi	r15, r1, 0
    35ac:	ea61001c 	lwi	r19, r1, 28
    35b0:	b60f0008 	rtsd	r15, 8
    35b4:	30210020 	addik	r1, r1, 32

000035b8 <XIOModule_Initialize>:
    35b8:	3021ffdc 	addik	r1, r1, -36
    35bc:	fa61001c 	swi	r19, r1, 28
    35c0:	f9e10000 	swi	r15, r1, 0
    35c4:	fac10020 	swi	r22, r1, 32
    35c8:	be050058 	beqid	r5, 88		// 3620
    35cc:	12650000 	addk	r19, r5, r0
    35d0:	e8850008 	lwi	r4, r5, 8
    35d4:	b0000000 	imm	0
    35d8:	f8008de4 	swi	r0, r0, -29212	// 8de4 <XAssertStatus>
    35dc:	b0002222 	imm	8738
    35e0:	a8842222 	xori	r4, r4, 8738
    35e4:	be040028 	beqid	r4, 40		// 360c
    35e8:	30600005 	addik	r3, r0, 5
    35ec:	b0000000 	imm	0
    35f0:	e48089d8 	lhui	r4, r0, -30248	// 89d8 <XIOModule_ConfigTable>
    35f4:	b0000000 	imm	0
    35f8:	306089d8 	addik	r3, r0, -30248	// 89d8 <XIOModule_ConfigTable>
    35fc:	88843000 	xor	r4, r4, r6
    3600:	be040048 	beqid	r4, 72		// 3648
    3604:	30e00020 	addik	r7, r0, 32	// 20 <_vector_hw_exception>
    3608:	30600002 	addik	r3, r0, 2
    360c:	e9e10000 	lwi	r15, r1, 0
    3610:	ea61001c 	lwi	r19, r1, 28
    3614:	eac10020 	lwi	r22, r1, 32
    3618:	b60f0008 	rtsd	r15, 8
    361c:	30210024 	addik	r1, r1, 36
    3620:	b0000000 	imm	0
    3624:	30a072d4 	addik	r5, r0, 29396
    3628:	b0000000 	imm	0
    362c:	b9f410c8 	brlid	r15, 4296	// 46f4 <XAssert>
    3630:	30c00080 	addik	r6, r0, 128	// 80 <_exit>
    3634:	30600001 	addik	r3, r0, 1
    3638:	b0000000 	imm	0
    363c:	f8608de4 	swi	r3, r0, -29212	// 8de4 <XAssertStatus>
    3640:	b810ffcc 	brid	-52		// 360c
    3644:	10730000 	addk	r3, r19, r0
    3648:	f8850004 	swi	r4, r5, 4
    364c:	f8850008 	swi	r4, r5, 8
    3650:	f865000c 	swi	r3, r5, 12
    3654:	30a00001 	addik	r5, r0, 1
    3658:	f8a30018 	swi	r5, r3, 24
    365c:	b0000000 	imm	0
    3660:	e8608a0c 	lwi	r3, r0, -30196
    3664:	b0000000 	imm	0
    3668:	3180473c 	addik	r12, r0, 18236	// 473c <XNullHandler>
    366c:	f8730090 	swi	r3, r19, 144
    3670:	b0000000 	imm	0
    3674:	e8a08a10 	lwi	r5, r0, -30192
    3678:	31000001 	addik	r8, r0, 1
    367c:	f8b30094 	swi	r5, r19, 148
    3680:	b0000000 	imm	0
    3684:	e8608a14 	lwi	r3, r0, -30188
    3688:	f8730098 	swi	r3, r19, 152
    368c:	b0000000 	imm	0
    3690:	e8a08a18 	lwi	r5, r0, -30184
    3694:	f8b3009c 	swi	r5, r19, 156
    3698:	b0000000 	imm	0
    369c:	eac089dc 	lwi	r22, r0, -30244
    36a0:	b8100028 	brid	40		// 36c8
    36a4:	fad30000 	swi	r22, r19, 0
    36a8:	bc0b0060 	beqi	r11, 96		// 3708
    36ac:	b0000000 	imm	0
    36b0:	f90a8d64 	swi	r8, r10, -29340
    36b4:	b0000000 	imm	0
    36b8:	fa6989d8 	swi	r19, r9, -30248
    36bc:	11084000 	addk	r8, r8, r8
    36c0:	be07007c 	beqid	r7, 124		// 373c
    36c4:	a48400ff 	andi	r4, r4, 255
    36c8:	10642000 	addk	r3, r4, r4
    36cc:	10a31800 	addk	r5, r3, r3
    36d0:	10a52800 	addk	r5, r5, r5
    36d4:	b0000000 	imm	0
    36d8:	30a589d8 	addik	r5, r5, -30248
    36dc:	31240009 	addik	r9, r4, 9
    36e0:	e8a50044 	lwi	r5, r5, 68
    36e4:	11294800 	addk	r9, r9, r9
    36e8:	11294800 	addk	r9, r9, r9
    36ec:	30e7ffff 	addik	r7, r7, -1
    36f0:	11294800 	addk	r9, r9, r9
    36f4:	11431800 	addk	r10, r3, r3
    36f8:	30840001 	addik	r4, r4, 1
    36fc:	a4e700ff 	andi	r7, r7, 255
    3700:	be25ffa8 	bneid	r5, -88		// 36a8
    3704:	89656000 	xor	r11, r5, r12
    3708:	b0000000 	imm	0
    370c:	30a02928 	addik	r5, r0, 10536	// 2928 <StubHandler>
    3710:	10631800 	addk	r3, r3, r3
    3714:	10631800 	addk	r3, r3, r3
    3718:	b0000000 	imm	0
    371c:	f90a8d64 	swi	r8, r10, -29340
    3720:	b0000000 	imm	0
    3724:	f8a38a1c 	swi	r5, r3, -30180
    3728:	b0000000 	imm	0
    372c:	fa6989d8 	swi	r19, r9, -30248
    3730:	11084000 	addk	r8, r8, r8
    3734:	be27ff94 	bneid	r7, -108		// 36c8
    3738:	a48400ff 	andi	r4, r4, 255
    373c:	f8f60038 	swi	r7, r22, 56
    3740:	e8730000 	lwi	r3, r19, 0
    3744:	3080ffff 	addik	r4, r0, -1
    3748:	f8e3000c 	swi	r7, r3, 12
    374c:	e8730000 	lwi	r3, r19, 0
    3750:	f883003c 	swi	r4, r3, 60
    3754:	f8f3005c 	swi	r7, r19, 92
    3758:	f8f30060 	swi	r7, r19, 96
    375c:	b0000000 	imm	0
    3760:	e86089e4 	lwi	r3, r0, -30236
    3764:	a8630001 	xori	r3, r3, 1
    3768:	be030058 	beqid	r3, 88		// 37c0
    376c:	10670000 	addk	r3, r7, r0
    3770:	b9f4fd48 	brlid	r15, -696	// 34b8 <XIOModule_Timer_Initialize>
    3774:	10b30000 	addk	r5, r19, r0
    3778:	10b30000 	addk	r5, r19, r0
    377c:	b0000000 	imm	0
    3780:	30c089d8 	addik	r6, r0, -30248	// 89d8 <XIOModule_ConfigTable>
    3784:	b0000000 	imm	0
    3788:	b9f40d60 	brlid	r15, 3424	// 44e8 <XIOModule_CfgInitialize>
    378c:	10e00000 	addk	r7, r0, r0
    3790:	b0000000 	imm	0
    3794:	e8a089e0 	lwi	r5, r0, -30240
    3798:	b0001111 	imm	4369
    379c:	30601111 	addik	r3, r0, 4369
    37a0:	f8b300a0 	swi	r5, r19, 160
    37a4:	f8730004 	swi	r3, r19, 4
    37a8:	e9e10000 	lwi	r15, r1, 0
    37ac:	ea61001c 	lwi	r19, r1, 28
    37b0:	eac10020 	lwi	r22, r1, 32
    37b4:	10600000 	addk	r3, r0, r0
    37b8:	b60f0008 	rtsd	r15, 8
    37bc:	30210024 	addik	r1, r1, 36
    37c0:	e8b30000 	lwi	r5, r19, 0
    37c4:	30800020 	addik	r4, r0, 32	// 20 <_vector_hw_exception>
    37c8:	f8e5000c 	swi	r7, r5, 12
    37cc:	b0000000 	imm	0
    37d0:	e90089e8 	lwi	r8, r0, -30232
    37d4:	e8f30000 	lwi	r7, r19, 0
    37d8:	10a31800 	addk	r5, r3, r3
    37dc:	a508ff80 	andi	r8, r8, -128
    37e0:	30e70080 	addik	r7, r7, 128
    37e4:	10a52800 	addk	r5, r5, r5
    37e8:	a1080010 	ori	r8, r8, 16
    37ec:	3084ffff 	addik	r4, r4, -1
    37f0:	30630001 	addik	r3, r3, 1
    37f4:	d9053800 	sw	r8, r5, r7
    37f8:	a48400ff 	andi	r4, r4, 255
    37fc:	be24ffd0 	bneid	r4, -48		// 37cc
    3800:	a46300ff 	andi	r3, r3, 255
    3804:	b800ff6c 	bri	-148		// 3770

00003808 <XIOModule_Timer_Start>:
    3808:	3021ffe4 	addik	r1, r1, -28
    380c:	be0500c0 	beqid	r5, 192		// 38cc
    3810:	f9e10000 	swi	r15, r1, 0
    3814:	b0000000 	imm	0
    3818:	f8008de4 	swi	r0, r0, -29212	// 8de4 <XAssertStatus>
    381c:	30600003 	addik	r3, r0, 3
    3820:	16461803 	cmpu	r18, r6, r3
    3824:	bc52007c 	blti	r18, 124		// 38a0
    3828:	e8650004 	lwi	r3, r5, 4
    382c:	b0001111 	imm	4369
    3830:	a8631111 	xori	r3, r3, 4369
    3834:	be030034 	beqid	r3, 52		// 3868
    3838:	10653000 	addk	r3, r5, r6
    383c:	b0000000 	imm	0
    3840:	30a072d4 	addik	r5, r0, 29396
    3844:	b0000000 	imm	0
    3848:	b9f40eac 	brlid	r15, 3756	// 46f4 <XAssert>
    384c:	30c003a7 	addik	r6, r0, 935
    3850:	30600001 	addik	r3, r0, 1
    3854:	b0000000 	imm	0
    3858:	f8608de4 	swi	r3, r0, -29212	// 8de4 <XAssertStatus>
    385c:	e9e10000 	lwi	r15, r1, 0
    3860:	b60f0008 	rtsd	r15, 8
    3864:	3021001c 	addik	r1, r1, 28
    3868:	e0830084 	lbui	r4, r3, 132
    386c:	e8a50000 	lwi	r5, r5, 0
    3870:	10c63000 	addk	r6, r6, r6
    3874:	10c63000 	addk	r6, r6, r6
    3878:	a0840001 	ori	r4, r4, 1
    387c:	10c63000 	addk	r6, r6, r6
    3880:	a48400ff 	andi	r4, r4, 255
    3884:	30a50048 	addik	r5, r5, 72
    3888:	10c63000 	addk	r6, r6, r6
    388c:	d8862800 	sw	r4, r6, r5
    3890:	f0830084 	sbi	r4, r3, 132
    3894:	e9e10000 	lwi	r15, r1, 0
    3898:	b60f0008 	rtsd	r15, 8
    389c:	3021001c 	addik	r1, r1, 28
    38a0:	b0000000 	imm	0
    38a4:	30a072d4 	addik	r5, r0, 29396
    38a8:	b0000000 	imm	0
    38ac:	b9f40e48 	brlid	r15, 3656	// 46f4 <XAssert>
    38b0:	30c003a6 	addik	r6, r0, 934
    38b4:	e9e10000 	lwi	r15, r1, 0
    38b8:	30600001 	addik	r3, r0, 1
    38bc:	b0000000 	imm	0
    38c0:	f8608de4 	swi	r3, r0, -29212	// 8de4 <XAssertStatus>
    38c4:	b60f0008 	rtsd	r15, 8
    38c8:	3021001c 	addik	r1, r1, 28
    38cc:	b0000000 	imm	0
    38d0:	30a072d4 	addik	r5, r0, 29396
    38d4:	b0000000 	imm	0
    38d8:	b9f40e1c 	brlid	r15, 3612	// 46f4 <XAssert>
    38dc:	30c003a5 	addik	r6, r0, 933
    38e0:	30600001 	addik	r3, r0, 1
    38e4:	b0000000 	imm	0
    38e8:	f8608de4 	swi	r3, r0, -29212	// 8de4 <XAssertStatus>
    38ec:	b810ff74 	brid	-140		// 3860
    38f0:	e9e10000 	lwi	r15, r1, 0

000038f4 <XIOModule_Timer_Stop>:
    38f4:	3021ffe4 	addik	r1, r1, -28
    38f8:	be0500bc 	beqid	r5, 188		// 39b4
    38fc:	f9e10000 	swi	r15, r1, 0
    3900:	b0000000 	imm	0
    3904:	f8008de4 	swi	r0, r0, -29212	// 8de4 <XAssertStatus>
    3908:	30600003 	addik	r3, r0, 3
    390c:	16461803 	cmpu	r18, r6, r3
    3910:	bc520078 	blti	r18, 120		// 3988
    3914:	e8650004 	lwi	r3, r5, 4
    3918:	b0001111 	imm	4369
    391c:	a8631111 	xori	r3, r3, 4369
    3920:	be030034 	beqid	r3, 52		// 3954
    3924:	10653000 	addk	r3, r5, r6
    3928:	b0000000 	imm	0
    392c:	30a072d4 	addik	r5, r0, 29396
    3930:	b0000000 	imm	0
    3934:	b9f40dc0 	brlid	r15, 3520	// 46f4 <XAssert>
    3938:	30c003d4 	addik	r6, r0, 980
    393c:	30600001 	addik	r3, r0, 1
    3940:	b0000000 	imm	0
    3944:	f8608de4 	swi	r3, r0, -29212	// 8de4 <XAssertStatus>
    3948:	e9e10000 	lwi	r15, r1, 0
    394c:	b60f0008 	rtsd	r15, 8
    3950:	3021001c 	addik	r1, r1, 28
    3954:	e0830084 	lbui	r4, r3, 132
    3958:	e8a50000 	lwi	r5, r5, 0
    395c:	10c63000 	addk	r6, r6, r6
    3960:	10c63000 	addk	r6, r6, r6
    3964:	10c63000 	addk	r6, r6, r6
    3968:	a484fffe 	andi	r4, r4, -2
    396c:	30a50048 	addik	r5, r5, 72
    3970:	10c63000 	addk	r6, r6, r6
    3974:	d8862800 	sw	r4, r6, r5
    3978:	f0830084 	sbi	r4, r3, 132
    397c:	e9e10000 	lwi	r15, r1, 0
    3980:	b60f0008 	rtsd	r15, 8
    3984:	3021001c 	addik	r1, r1, 28
    3988:	b0000000 	imm	0
    398c:	30a072d4 	addik	r5, r0, 29396
    3990:	b0000000 	imm	0
    3994:	b9f40d60 	brlid	r15, 3424	// 46f4 <XAssert>
    3998:	30c003d3 	addik	r6, r0, 979
    399c:	e9e10000 	lwi	r15, r1, 0
    39a0:	30600001 	addik	r3, r0, 1
    39a4:	b0000000 	imm	0
    39a8:	f8608de4 	swi	r3, r0, -29212	// 8de4 <XAssertStatus>
    39ac:	b60f0008 	rtsd	r15, 8
    39b0:	3021001c 	addik	r1, r1, 28
    39b4:	b0000000 	imm	0
    39b8:	30a072d4 	addik	r5, r0, 29396
    39bc:	b0000000 	imm	0
    39c0:	b9f40d34 	brlid	r15, 3380	// 46f4 <XAssert>
    39c4:	30c003d2 	addik	r6, r0, 978
    39c8:	30600001 	addik	r3, r0, 1
    39cc:	b0000000 	imm	0
    39d0:	f8608de4 	swi	r3, r0, -29212	// 8de4 <XAssertStatus>
    39d4:	b810ff78 	brid	-136		// 394c
    39d8:	e9e10000 	lwi	r15, r1, 0

000039dc <XIOModule_GetValue>:
    39dc:	3021ffe0 	addik	r1, r1, -32
    39e0:	fa61001c 	swi	r19, r1, 28
    39e4:	f9e10000 	swi	r15, r1, 0
    39e8:	be0500c0 	beqid	r5, 192		// 3aa8
    39ec:	12650000 	addk	r19, r5, r0
    39f0:	b0000000 	imm	0
    39f4:	f8008de4 	swi	r0, r0, -29212	// 8de4 <XAssertStatus>
    39f8:	30600003 	addik	r3, r0, 3
    39fc:	16461803 	cmpu	r18, r6, r3
    3a00:	bc520074 	blti	r18, 116		// 3a74
    3a04:	e8650004 	lwi	r3, r5, 4
    3a08:	b0001111 	imm	4369
    3a0c:	a8631111 	xori	r3, r3, 4369
    3a10:	be03003c 	beqid	r3, 60		// 3a4c
    3a14:	10c63000 	addk	r6, r6, r6
    3a18:	b0000000 	imm	0
    3a1c:	30a072d4 	addik	r5, r0, 29396
    3a20:	b0000000 	imm	0
    3a24:	b9f40cd0 	brlid	r15, 3280	// 46f4 <XAssert>
    3a28:	30c00400 	addik	r6, r0, 1024	// 400 <_HEAP_SIZE>
    3a2c:	30600001 	addik	r3, r0, 1
    3a30:	b0000000 	imm	0
    3a34:	f8608de4 	swi	r3, r0, -29212	// 8de4 <XAssertStatus>
    3a38:	10600000 	addk	r3, r0, r0
    3a3c:	e9e10000 	lwi	r15, r1, 0
    3a40:	ea61001c 	lwi	r19, r1, 28
    3a44:	b60f0008 	rtsd	r15, 8
    3a48:	30210020 	addik	r1, r1, 32
    3a4c:	e8650000 	lwi	r3, r5, 0
    3a50:	10c63000 	addk	r6, r6, r6
    3a54:	10c63000 	addk	r6, r6, r6
    3a58:	10c63000 	addk	r6, r6, r6
    3a5c:	30630044 	addik	r3, r3, 68
    3a60:	c8661800 	lw	r3, r6, r3
    3a64:	e9e10000 	lwi	r15, r1, 0
    3a68:	ea61001c 	lwi	r19, r1, 28
    3a6c:	b60f0008 	rtsd	r15, 8
    3a70:	30210020 	addik	r1, r1, 32
    3a74:	b0000000 	imm	0
    3a78:	30a072d4 	addik	r5, r0, 29396
    3a7c:	b0000000 	imm	0
    3a80:	b9f40c74 	brlid	r15, 3188	// 46f4 <XAssert>
    3a84:	30c003ff 	addik	r6, r0, 1023
    3a88:	e9e10000 	lwi	r15, r1, 0
    3a8c:	ea61001c 	lwi	r19, r1, 28
    3a90:	30600001 	addik	r3, r0, 1
    3a94:	b0000000 	imm	0
    3a98:	f8608de4 	swi	r3, r0, -29212	// 8de4 <XAssertStatus>
    3a9c:	10600000 	addk	r3, r0, r0
    3aa0:	b60f0008 	rtsd	r15, 8
    3aa4:	30210020 	addik	r1, r1, 32
    3aa8:	b0000000 	imm	0
    3aac:	30a072d4 	addik	r5, r0, 29396
    3ab0:	b0000000 	imm	0
    3ab4:	b9f40c40 	brlid	r15, 3136	// 46f4 <XAssert>
    3ab8:	30c003fe 	addik	r6, r0, 1022
    3abc:	30600001 	addik	r3, r0, 1
    3ac0:	b0000000 	imm	0
    3ac4:	f8608de4 	swi	r3, r0, -29212	// 8de4 <XAssertStatus>
    3ac8:	b810ff74 	brid	-140		// 3a3c
    3acc:	10730000 	addk	r3, r19, r0

00003ad0 <XIOModule_SetResetValue>:
    3ad0:	3021ffe4 	addik	r1, r1, -28
    3ad4:	be0500bc 	beqid	r5, 188		// 3b90
    3ad8:	f9e10000 	swi	r15, r1, 0
    3adc:	b0000000 	imm	0
    3ae0:	f8008de4 	swi	r0, r0, -29212	// 8de4 <XAssertStatus>
    3ae4:	30600003 	addik	r3, r0, 3
    3ae8:	16461803 	cmpu	r18, r6, r3
    3aec:	bc520078 	blti	r18, 120		// 3b64
    3af0:	e8650004 	lwi	r3, r5, 4
    3af4:	b0001111 	imm	4369
    3af8:	a8631111 	xori	r3, r3, 4369
    3afc:	be030034 	beqid	r3, 52		// 3b30
    3b00:	10663000 	addk	r3, r6, r6
    3b04:	b0000000 	imm	0
    3b08:	30a072d4 	addik	r5, r0, 29396
    3b0c:	b0000000 	imm	0
    3b10:	b9f40be4 	brlid	r15, 3044	// 46f4 <XAssert>
    3b14:	30c00421 	addik	r6, r0, 1057
    3b18:	30600001 	addik	r3, r0, 1
    3b1c:	b0000000 	imm	0
    3b20:	f8608de4 	swi	r3, r0, -29212	// 8de4 <XAssertStatus>
    3b24:	e9e10000 	lwi	r15, r1, 0
    3b28:	b60f0008 	rtsd	r15, 8
    3b2c:	3021001c 	addik	r1, r1, 28
    3b30:	e8850000 	lwi	r4, r5, 0
    3b34:	10631800 	addk	r3, r3, r3
    3b38:	10631800 	addk	r3, r3, r3
    3b3c:	30c6001d 	addik	r6, r6, 29
    3b40:	30840040 	addik	r4, r4, 64
    3b44:	10631800 	addk	r3, r3, r3
    3b48:	10c63000 	addk	r6, r6, r6
    3b4c:	d8e32000 	sw	r7, r3, r4
    3b50:	10c63000 	addk	r6, r6, r6
    3b54:	d8e62800 	sw	r7, r6, r5
    3b58:	e9e10000 	lwi	r15, r1, 0
    3b5c:	b60f0008 	rtsd	r15, 8
    3b60:	3021001c 	addik	r1, r1, 28
    3b64:	b0000000 	imm	0
    3b68:	30a072d4 	addik	r5, r0, 29396
    3b6c:	b0000000 	imm	0
    3b70:	b9f40b84 	brlid	r15, 2948	// 46f4 <XAssert>
    3b74:	30c00420 	addik	r6, r0, 1056
    3b78:	e9e10000 	lwi	r15, r1, 0
    3b7c:	30600001 	addik	r3, r0, 1
    3b80:	b0000000 	imm	0
    3b84:	f8608de4 	swi	r3, r0, -29212	// 8de4 <XAssertStatus>
    3b88:	b60f0008 	rtsd	r15, 8
    3b8c:	3021001c 	addik	r1, r1, 28
    3b90:	b0000000 	imm	0
    3b94:	30a072d4 	addik	r5, r0, 29396
    3b98:	b0000000 	imm	0
    3b9c:	b9f40b58 	brlid	r15, 2904	// 46f4 <XAssert>
    3ba0:	30c0041f 	addik	r6, r0, 1055
    3ba4:	30600001 	addik	r3, r0, 1
    3ba8:	b0000000 	imm	0
    3bac:	f8608de4 	swi	r3, r0, -29212	// 8de4 <XAssertStatus>
    3bb0:	b810ff78 	brid	-136		// 3b28
    3bb4:	e9e10000 	lwi	r15, r1, 0

00003bb8 <XIOModule_GetCaptureValue>:
    3bb8:	3021ffe0 	addik	r1, r1, -32
    3bbc:	fa61001c 	swi	r19, r1, 28
    3bc0:	f9e10000 	swi	r15, r1, 0
    3bc4:	be0500b4 	beqid	r5, 180		// 3c78
    3bc8:	12650000 	addk	r19, r5, r0
    3bcc:	b0000000 	imm	0
    3bd0:	f8008de4 	swi	r0, r0, -29212	// 8de4 <XAssertStatus>
    3bd4:	30600003 	addik	r3, r0, 3
    3bd8:	16461803 	cmpu	r18, r6, r3
    3bdc:	bc520068 	blti	r18, 104		// 3c44
    3be0:	e8650004 	lwi	r3, r5, 4
    3be4:	b0001111 	imm	4369
    3be8:	a8631111 	xori	r3, r3, 4369
    3bec:	be03003c 	beqid	r3, 60		// 3c28
    3bf0:	30c6001d 	addik	r6, r6, 29
    3bf4:	b0000000 	imm	0
    3bf8:	30a072d4 	addik	r5, r0, 29396
    3bfc:	b0000000 	imm	0
    3c00:	b9f40af4 	brlid	r15, 2804	// 46f4 <XAssert>
    3c04:	30c00440 	addik	r6, r0, 1088
    3c08:	30600001 	addik	r3, r0, 1
    3c0c:	b0000000 	imm	0
    3c10:	f8608de4 	swi	r3, r0, -29212	// 8de4 <XAssertStatus>
    3c14:	10600000 	addk	r3, r0, r0
    3c18:	e9e10000 	lwi	r15, r1, 0
    3c1c:	ea61001c 	lwi	r19, r1, 28
    3c20:	b60f0008 	rtsd	r15, 8
    3c24:	30210020 	addik	r1, r1, 32
    3c28:	10c63000 	addk	r6, r6, r6
    3c2c:	10c63000 	addk	r6, r6, r6
    3c30:	c8662800 	lw	r3, r6, r5
    3c34:	e9e10000 	lwi	r15, r1, 0
    3c38:	ea61001c 	lwi	r19, r1, 28
    3c3c:	b60f0008 	rtsd	r15, 8
    3c40:	30210020 	addik	r1, r1, 32
    3c44:	b0000000 	imm	0
    3c48:	30a072d4 	addik	r5, r0, 29396
    3c4c:	b0000000 	imm	0
    3c50:	b9f40aa4 	brlid	r15, 2724	// 46f4 <XAssert>
    3c54:	30c0043f 	addik	r6, r0, 1087
    3c58:	e9e10000 	lwi	r15, r1, 0
    3c5c:	ea61001c 	lwi	r19, r1, 28
    3c60:	30600001 	addik	r3, r0, 1
    3c64:	b0000000 	imm	0
    3c68:	f8608de4 	swi	r3, r0, -29212	// 8de4 <XAssertStatus>
    3c6c:	10600000 	addk	r3, r0, r0
    3c70:	b60f0008 	rtsd	r15, 8
    3c74:	30210020 	addik	r1, r1, 32
    3c78:	b0000000 	imm	0
    3c7c:	30a072d4 	addik	r5, r0, 29396
    3c80:	b0000000 	imm	0
    3c84:	b9f40a70 	brlid	r15, 2672	// 46f4 <XAssert>
    3c88:	30c0043e 	addik	r6, r0, 1086
    3c8c:	30600001 	addik	r3, r0, 1
    3c90:	b0000000 	imm	0
    3c94:	f8608de4 	swi	r3, r0, -29212	// 8de4 <XAssertStatus>
    3c98:	b810ff80 	brid	-128		// 3c18
    3c9c:	10730000 	addk	r3, r19, r0

00003ca0 <XIOModule_Reset>:
    3ca0:	3021ffe4 	addik	r1, r1, -28
    3ca4:	be0500cc 	beqid	r5, 204		// 3d70
    3ca8:	f9e10000 	swi	r15, r1, 0
    3cac:	b0000000 	imm	0
    3cb0:	f8008de4 	swi	r0, r0, -29212	// 8de4 <XAssertStatus>
    3cb4:	30600003 	addik	r3, r0, 3
    3cb8:	16461803 	cmpu	r18, r6, r3
    3cbc:	bc520088 	blti	r18, 136		// 3d44
    3cc0:	e8650004 	lwi	r3, r5, 4
    3cc4:	b0001111 	imm	4369
    3cc8:	a8631111 	xori	r3, r3, 4369
    3ccc:	be23004c 	bneid	r3, 76		// 3d18
    3cd0:	10653000 	addk	r3, r5, r6
    3cd4:	e0630084 	lbui	r3, r3, 132
    3cd8:	a4830001 	andi	r4, r3, 1
    3cdc:	be240030 	bneid	r4, 48		// 3d0c
    3ce0:	10c63000 	addk	r6, r6, r6
    3ce4:	e8850000 	lwi	r4, r5, 0
    3ce8:	10c63000 	addk	r6, r6, r6
    3cec:	10c63000 	addk	r6, r6, r6
    3cf0:	10c63000 	addk	r6, r6, r6
    3cf4:	30840048 	addik	r4, r4, 72
    3cf8:	a0e30001 	ori	r7, r3, 1
    3cfc:	d8e62000 	sw	r7, r6, r4
    3d00:	e8850000 	lwi	r4, r5, 0
    3d04:	30840048 	addik	r4, r4, 72
    3d08:	d8662000 	sw	r3, r6, r4
    3d0c:	e9e10000 	lwi	r15, r1, 0
    3d10:	b60f0008 	rtsd	r15, 8
    3d14:	3021001c 	addik	r1, r1, 28
    3d18:	b0000000 	imm	0
    3d1c:	30a072d4 	addik	r5, r0, 29396
    3d20:	b0000000 	imm	0
    3d24:	b9f409d0 	brlid	r15, 2512	// 46f4 <XAssert>
    3d28:	30c0045e 	addik	r6, r0, 1118
    3d2c:	e9e10000 	lwi	r15, r1, 0
    3d30:	30600001 	addik	r3, r0, 1
    3d34:	b0000000 	imm	0
    3d38:	f8608de4 	swi	r3, r0, -29212	// 8de4 <XAssertStatus>
    3d3c:	b60f0008 	rtsd	r15, 8
    3d40:	3021001c 	addik	r1, r1, 28
    3d44:	b0000000 	imm	0
    3d48:	30a072d4 	addik	r5, r0, 29396
    3d4c:	b0000000 	imm	0
    3d50:	b9f409a4 	brlid	r15, 2468	// 46f4 <XAssert>
    3d54:	30c0045d 	addik	r6, r0, 1117
    3d58:	e9e10000 	lwi	r15, r1, 0
    3d5c:	30600001 	addik	r3, r0, 1
    3d60:	b0000000 	imm	0
    3d64:	f8608de4 	swi	r3, r0, -29212	// 8de4 <XAssertStatus>
    3d68:	b60f0008 	rtsd	r15, 8
    3d6c:	3021001c 	addik	r1, r1, 28
    3d70:	b0000000 	imm	0
    3d74:	30a072d4 	addik	r5, r0, 29396
    3d78:	b0000000 	imm	0
    3d7c:	b9f40978 	brlid	r15, 2424	// 46f4 <XAssert>
    3d80:	30c0045c 	addik	r6, r0, 1116
    3d84:	30600001 	addik	r3, r0, 1
    3d88:	b0000000 	imm	0
    3d8c:	f8608de4 	swi	r3, r0, -29212	// 8de4 <XAssertStatus>
    3d90:	b810ff80 	brid	-128		// 3d10
    3d94:	e9e10000 	lwi	r15, r1, 0

00003d98 <XIOModule_IsExpired>:
    3d98:	3021ffdc 	addik	r1, r1, -36
    3d9c:	fa61001c 	swi	r19, r1, 28
    3da0:	f9e10000 	swi	r15, r1, 0
    3da4:	fac10020 	swi	r22, r1, 32
    3da8:	be0501a4 	beqid	r5, 420		// 3f4c
    3dac:	12650000 	addk	r19, r5, r0
    3db0:	b0000000 	imm	0
    3db4:	f8008de4 	swi	r0, r0, -29212	// 8de4 <XAssertStatus>
    3db8:	30600003 	addik	r3, r0, 3
    3dbc:	16461803 	cmpu	r18, r6, r3
    3dc0:	bc52012c 	blti	r18, 300		// 3eec
    3dc4:	e8650004 	lwi	r3, r5, 4
    3dc8:	b0001111 	imm	4369
    3dcc:	a8631111 	xori	r3, r3, 4369
    3dd0:	bc2300e4 	bnei	r3, 228		// 3eb4
    3dd4:	e865000c 	lwi	r3, r5, 12
    3dd8:	10633000 	addk	r3, r3, r6
    3ddc:	e2c30030 	lbui	r22, r3, 48
    3de0:	bc160144 	beqi	r22, 324		// 3f24
    3de4:	10653000 	addk	r3, r5, r6
    3de8:	e0830084 	lbui	r4, r3, 132
    3dec:	a4840002 	andi	r4, r4, 2
    3df0:	be2400b0 	bneid	r4, 176		// 3ea0
    3df4:	30600001 	addik	r3, r0, 1
    3df8:	e8650000 	lwi	r3, r5, 0
    3dfc:	10c63000 	addk	r6, r6, r6
    3e00:	10c63000 	addk	r6, r6, r6
    3e04:	10c63000 	addk	r6, r6, r6
    3e08:	30630044 	addik	r3, r3, 68
    3e0c:	10c63000 	addk	r6, r6, r6
    3e10:	c8661800 	lw	r3, r6, r3
    3e14:	14830000 	rsubk	r4, r3, r0
    3e18:	80641800 	or	r3, r4, r3
    3e1c:	a883ffff 	xori	r4, r3, -1
    3e20:	10602000 	addk	r3, r0, r4
    3e24:	90640041 	srl	r3, r4
    3e28:	90630041 	srl	r3, r3
    3e2c:	90630041 	srl	r3, r3
    3e30:	90630041 	srl	r3, r3
    3e34:	90630041 	srl	r3, r3
    3e38:	90630041 	srl	r3, r3
    3e3c:	90630041 	srl	r3, r3
    3e40:	90630041 	srl	r3, r3
    3e44:	90630041 	srl	r3, r3
    3e48:	90630041 	srl	r3, r3
    3e4c:	90630041 	srl	r3, r3
    3e50:	90630041 	srl	r3, r3
    3e54:	90630041 	srl	r3, r3
    3e58:	90630041 	srl	r3, r3
    3e5c:	90630041 	srl	r3, r3
    3e60:	90630041 	srl	r3, r3
    3e64:	90630041 	srl	r3, r3
    3e68:	90630041 	srl	r3, r3
    3e6c:	90630041 	srl	r3, r3
    3e70:	90630041 	srl	r3, r3
    3e74:	90630041 	srl	r3, r3
    3e78:	90630041 	srl	r3, r3
    3e7c:	90630041 	srl	r3, r3
    3e80:	90630041 	srl	r3, r3
    3e84:	90630041 	srl	r3, r3
    3e88:	90630041 	srl	r3, r3
    3e8c:	90630041 	srl	r3, r3
    3e90:	90630041 	srl	r3, r3
    3e94:	90630041 	srl	r3, r3
    3e98:	90630041 	srl	r3, r3
    3e9c:	90630041 	srl	r3, r3
    3ea0:	e9e10000 	lwi	r15, r1, 0
    3ea4:	ea61001c 	lwi	r19, r1, 28
    3ea8:	eac10020 	lwi	r22, r1, 32
    3eac:	b60f0008 	rtsd	r15, 8
    3eb0:	30210024 	addik	r1, r1, 36
    3eb4:	b0000000 	imm	0
    3eb8:	30a072d4 	addik	r5, r0, 29396
    3ebc:	b0000000 	imm	0
    3ec0:	b9f40834 	brlid	r15, 2100	// 46f4 <XAssert>
    3ec4:	30c0048f 	addik	r6, r0, 1167
    3ec8:	e9e10000 	lwi	r15, r1, 0
    3ecc:	ea61001c 	lwi	r19, r1, 28
    3ed0:	eac10020 	lwi	r22, r1, 32
    3ed4:	30600001 	addik	r3, r0, 1
    3ed8:	b0000000 	imm	0
    3edc:	f8608de4 	swi	r3, r0, -29212	// 8de4 <XAssertStatus>
    3ee0:	10600000 	addk	r3, r0, r0
    3ee4:	b60f0008 	rtsd	r15, 8
    3ee8:	30210024 	addik	r1, r1, 36
    3eec:	b0000000 	imm	0
    3ef0:	30a072d4 	addik	r5, r0, 29396
    3ef4:	b0000000 	imm	0
    3ef8:	b9f407fc 	brlid	r15, 2044	// 46f4 <XAssert>
    3efc:	30c0048e 	addik	r6, r0, 1166
    3f00:	e9e10000 	lwi	r15, r1, 0
    3f04:	ea61001c 	lwi	r19, r1, 28
    3f08:	eac10020 	lwi	r22, r1, 32
    3f0c:	30600001 	addik	r3, r0, 1
    3f10:	b0000000 	imm	0
    3f14:	f8608de4 	swi	r3, r0, -29212	// 8de4 <XAssertStatus>
    3f18:	10600000 	addk	r3, r0, r0
    3f1c:	b60f0008 	rtsd	r15, 8
    3f20:	30210024 	addik	r1, r1, 36
    3f24:	b0000000 	imm	0
    3f28:	30a072d4 	addik	r5, r0, 29396
    3f2c:	b0000000 	imm	0
    3f30:	b9f407c4 	brlid	r15, 1988	// 46f4 <XAssert>
    3f34:	30c00490 	addik	r6, r0, 1168
    3f38:	30600001 	addik	r3, r0, 1
    3f3c:	b0000000 	imm	0
    3f40:	f8608de4 	swi	r3, r0, -29212	// 8de4 <XAssertStatus>
    3f44:	b810ff5c 	brid	-164		// 3ea0
    3f48:	10760000 	addk	r3, r22, r0
    3f4c:	b0000000 	imm	0
    3f50:	30a072d4 	addik	r5, r0, 29396
    3f54:	b0000000 	imm	0
    3f58:	b9f4079c 	brlid	r15, 1948	// 46f4 <XAssert>
    3f5c:	30c0048d 	addik	r6, r0, 1165
    3f60:	30600001 	addik	r3, r0, 1
    3f64:	b0000000 	imm	0
    3f68:	f8608de4 	swi	r3, r0, -29212	// 8de4 <XAssertStatus>
    3f6c:	b810ff34 	brid	-204		// 3ea0
    3f70:	10730000 	addk	r3, r19, r0

00003f74 <XIOModule_IoReadWord>:
    3f74:	3021ffe0 	addik	r1, r1, -32
    3f78:	fa61001c 	swi	r19, r1, 28
    3f7c:	f9e10000 	swi	r15, r1, 0
    3f80:	be05006c 	beqid	r5, 108		// 3fec
    3f84:	12650000 	addk	r19, r5, r0
    3f88:	e8650004 	lwi	r3, r5, 4
    3f8c:	b0000000 	imm	0
    3f90:	f8008de4 	swi	r0, r0, -29212	// 8de4 <XAssertStatus>
    3f94:	b0001111 	imm	4369
    3f98:	a8631111 	xori	r3, r3, 4369
    3f9c:	be03003c 	beqid	r3, 60		// 3fd8
    3fa0:	e9e10000 	lwi	r15, r1, 0
    3fa4:	b0000000 	imm	0
    3fa8:	30a072d4 	addik	r5, r0, 29396
    3fac:	b0000000 	imm	0
    3fb0:	b9f40744 	brlid	r15, 1860	// 46f4 <XAssert>
    3fb4:	30c004b0 	addik	r6, r0, 1200
    3fb8:	30600001 	addik	r3, r0, 1
    3fbc:	b0000000 	imm	0
    3fc0:	f8608de4 	swi	r3, r0, -29212	// 8de4 <XAssertStatus>
    3fc4:	10600000 	addk	r3, r0, r0
    3fc8:	e9e10000 	lwi	r15, r1, 0
    3fcc:	ea61001c 	lwi	r19, r1, 28
    3fd0:	b60f0008 	rtsd	r15, 8
    3fd4:	30210020 	addik	r1, r1, 32
    3fd8:	e86500a0 	lwi	r3, r5, 160
    3fdc:	ea61001c 	lwi	r19, r1, 28
    3fe0:	c8633000 	lw	r3, r3, r6
    3fe4:	b60f0008 	rtsd	r15, 8
    3fe8:	30210020 	addik	r1, r1, 32
    3fec:	b0000000 	imm	0
    3ff0:	30a072d4 	addik	r5, r0, 29396
    3ff4:	b0000000 	imm	0
    3ff8:	b9f406fc 	brlid	r15, 1788	// 46f4 <XAssert>
    3ffc:	30c004af 	addik	r6, r0, 1199
    4000:	30600001 	addik	r3, r0, 1
    4004:	b0000000 	imm	0
    4008:	f8608de4 	swi	r3, r0, -29212	// 8de4 <XAssertStatus>
    400c:	b810ffbc 	brid	-68		// 3fc8
    4010:	10730000 	addk	r3, r19, r0

00004014 <XIOModule_IoReadHalfword>:
    4014:	3021ffe0 	addik	r1, r1, -32
    4018:	fa61001c 	swi	r19, r1, 28
    401c:	f9e10000 	swi	r15, r1, 0
    4020:	be050074 	beqid	r5, 116		// 4094
    4024:	12650000 	addk	r19, r5, r0
    4028:	e8650004 	lwi	r3, r5, 4
    402c:	b0000000 	imm	0
    4030:	f8008de4 	swi	r0, r0, -29212	// 8de4 <XAssertStatus>
    4034:	b0001111 	imm	4369
    4038:	a8631111 	xori	r3, r3, 4369
    403c:	be03003c 	beqid	r3, 60		// 4078
    4040:	e9e10000 	lwi	r15, r1, 0
    4044:	b0000000 	imm	0
    4048:	30a072d4 	addik	r5, r0, 29396
    404c:	b0000000 	imm	0
    4050:	b9f406a4 	brlid	r15, 1700	// 46f4 <XAssert>
    4054:	30c004c4 	addik	r6, r0, 1220
    4058:	30600001 	addik	r3, r0, 1
    405c:	b0000000 	imm	0
    4060:	f8608de4 	swi	r3, r0, -29212	// 8de4 <XAssertStatus>
    4064:	10600000 	addk	r3, r0, r0
    4068:	e9e10000 	lwi	r15, r1, 0
    406c:	ea61001c 	lwi	r19, r1, 28
    4070:	b60f0008 	rtsd	r15, 8
    4074:	30210020 	addik	r1, r1, 32
    4078:	e86500a0 	lwi	r3, r5, 160
    407c:	ea61001c 	lwi	r19, r1, 28
    4080:	c4633000 	lhu	r3, r3, r6
    4084:	b0000000 	imm	0
    4088:	a463ffff 	andi	r3, r3, -1
    408c:	b60f0008 	rtsd	r15, 8
    4090:	30210020 	addik	r1, r1, 32
    4094:	b0000000 	imm	0
    4098:	30a072d4 	addik	r5, r0, 29396
    409c:	b0000000 	imm	0
    40a0:	b9f40654 	brlid	r15, 1620	// 46f4 <XAssert>
    40a4:	30c004c3 	addik	r6, r0, 1219
    40a8:	30600001 	addik	r3, r0, 1
    40ac:	b0000000 	imm	0
    40b0:	f8608de4 	swi	r3, r0, -29212	// 8de4 <XAssertStatus>
    40b4:	b810ffb4 	brid	-76		// 4068
    40b8:	10730000 	addk	r3, r19, r0

000040bc <XIOModule_IoReadByte>:
    40bc:	3021ffe0 	addik	r1, r1, -32
    40c0:	fa61001c 	swi	r19, r1, 28
    40c4:	f9e10000 	swi	r15, r1, 0
    40c8:	be050070 	beqid	r5, 112		// 4138
    40cc:	12650000 	addk	r19, r5, r0
    40d0:	e8650004 	lwi	r3, r5, 4
    40d4:	b0000000 	imm	0
    40d8:	f8008de4 	swi	r0, r0, -29212	// 8de4 <XAssertStatus>
    40dc:	b0001111 	imm	4369
    40e0:	a8631111 	xori	r3, r3, 4369
    40e4:	be03003c 	beqid	r3, 60		// 4120
    40e8:	e9e10000 	lwi	r15, r1, 0
    40ec:	b0000000 	imm	0
    40f0:	30a072d4 	addik	r5, r0, 29396
    40f4:	b0000000 	imm	0
    40f8:	b9f405fc 	brlid	r15, 1532	// 46f4 <XAssert>
    40fc:	30c004d8 	addik	r6, r0, 1240
    4100:	30600001 	addik	r3, r0, 1
    4104:	b0000000 	imm	0
    4108:	f8608de4 	swi	r3, r0, -29212	// 8de4 <XAssertStatus>
    410c:	10600000 	addk	r3, r0, r0
    4110:	e9e10000 	lwi	r15, r1, 0
    4114:	ea61001c 	lwi	r19, r1, 28
    4118:	b60f0008 	rtsd	r15, 8
    411c:	30210020 	addik	r1, r1, 32
    4120:	e86500a0 	lwi	r3, r5, 160
    4124:	ea61001c 	lwi	r19, r1, 28
    4128:	c0633000 	lbu	r3, r3, r6
    412c:	a46300ff 	andi	r3, r3, 255
    4130:	b60f0008 	rtsd	r15, 8
    4134:	30210020 	addik	r1, r1, 32
    4138:	b0000000 	imm	0
    413c:	30a072d4 	addik	r5, r0, 29396
    4140:	b0000000 	imm	0
    4144:	b9f405b0 	brlid	r15, 1456	// 46f4 <XAssert>
    4148:	30c004d7 	addik	r6, r0, 1239
    414c:	30600001 	addik	r3, r0, 1
    4150:	b0000000 	imm	0
    4154:	f8608de4 	swi	r3, r0, -29212	// 8de4 <XAssertStatus>
    4158:	b810ffb8 	brid	-72		// 4110
    415c:	10730000 	addk	r3, r19, r0

00004160 <XIOModule_IoWriteWord>:
    4160:	3021ffe4 	addik	r1, r1, -28
    4164:	be050060 	beqid	r5, 96		// 41c4
    4168:	f9e10000 	swi	r15, r1, 0
    416c:	e8650004 	lwi	r3, r5, 4
    4170:	b0000000 	imm	0
    4174:	f8008de4 	swi	r0, r0, -29212	// 8de4 <XAssertStatus>
    4178:	b0001111 	imm	4369
    417c:	a8631111 	xori	r3, r3, 4369
    4180:	bc030030 	beqi	r3, 48		// 41b0
    4184:	b0000000 	imm	0
    4188:	30a072d4 	addik	r5, r0, 29396
    418c:	b0000000 	imm	0
    4190:	b9f40564 	brlid	r15, 1380	// 46f4 <XAssert>
    4194:	30c004ef 	addik	r6, r0, 1263
    4198:	30600001 	addik	r3, r0, 1
    419c:	b0000000 	imm	0
    41a0:	f8608de4 	swi	r3, r0, -29212	// 8de4 <XAssertStatus>
    41a4:	e9e10000 	lwi	r15, r1, 0
    41a8:	b60f0008 	rtsd	r15, 8
    41ac:	3021001c 	addik	r1, r1, 28
    41b0:	e86500a0 	lwi	r3, r5, 160
    41b4:	d8e33000 	sw	r7, r3, r6
    41b8:	e9e10000 	lwi	r15, r1, 0
    41bc:	b60f0008 	rtsd	r15, 8
    41c0:	3021001c 	addik	r1, r1, 28
    41c4:	b0000000 	imm	0
    41c8:	30a072d4 	addik	r5, r0, 29396
    41cc:	b0000000 	imm	0
    41d0:	b9f40524 	brlid	r15, 1316	// 46f4 <XAssert>
    41d4:	30c004ee 	addik	r6, r0, 1262
    41d8:	30600001 	addik	r3, r0, 1
    41dc:	b0000000 	imm	0
    41e0:	f8608de4 	swi	r3, r0, -29212	// 8de4 <XAssertStatus>
    41e4:	b810ffc4 	brid	-60		// 41a8
    41e8:	e9e10000 	lwi	r15, r1, 0

000041ec <XIOModule_IoWriteHalfword>:
    41ec:	3021ffe4 	addik	r1, r1, -28
    41f0:	be050060 	beqid	r5, 96		// 4250
    41f4:	f9e10000 	swi	r15, r1, 0
    41f8:	e8650004 	lwi	r3, r5, 4
    41fc:	b0000000 	imm	0
    4200:	f8008de4 	swi	r0, r0, -29212	// 8de4 <XAssertStatus>
    4204:	b0001111 	imm	4369
    4208:	a8631111 	xori	r3, r3, 4369
    420c:	bc030030 	beqi	r3, 48		// 423c
    4210:	b0000000 	imm	0
    4214:	30a072d4 	addik	r5, r0, 29396
    4218:	b0000000 	imm	0
    421c:	b9f404d8 	brlid	r15, 1240	// 46f4 <XAssert>
    4220:	30c00506 	addik	r6, r0, 1286
    4224:	30600001 	addik	r3, r0, 1
    4228:	b0000000 	imm	0
    422c:	f8608de4 	swi	r3, r0, -29212	// 8de4 <XAssertStatus>
    4230:	e9e10000 	lwi	r15, r1, 0
    4234:	b60f0008 	rtsd	r15, 8
    4238:	3021001c 	addik	r1, r1, 28
    423c:	e86500a0 	lwi	r3, r5, 160
    4240:	d4e33000 	sh	r7, r3, r6
    4244:	e9e10000 	lwi	r15, r1, 0
    4248:	b60f0008 	rtsd	r15, 8
    424c:	3021001c 	addik	r1, r1, 28
    4250:	b0000000 	imm	0
    4254:	30a072d4 	addik	r5, r0, 29396
    4258:	b0000000 	imm	0
    425c:	b9f40498 	brlid	r15, 1176	// 46f4 <XAssert>
    4260:	30c00505 	addik	r6, r0, 1285
    4264:	30600001 	addik	r3, r0, 1
    4268:	b0000000 	imm	0
    426c:	f8608de4 	swi	r3, r0, -29212	// 8de4 <XAssertStatus>
    4270:	b810ffc4 	brid	-60		// 4234
    4274:	e9e10000 	lwi	r15, r1, 0

00004278 <XIOModule_IoWriteByte>:
    4278:	3021ffe4 	addik	r1, r1, -28
    427c:	be050060 	beqid	r5, 96		// 42dc
    4280:	f9e10000 	swi	r15, r1, 0
    4284:	e8650004 	lwi	r3, r5, 4
    4288:	b0000000 	imm	0
    428c:	f8008de4 	swi	r0, r0, -29212	// 8de4 <XAssertStatus>
    4290:	b0001111 	imm	4369
    4294:	a8631111 	xori	r3, r3, 4369
    4298:	bc030030 	beqi	r3, 48		// 42c8
    429c:	b0000000 	imm	0
    42a0:	30a072d4 	addik	r5, r0, 29396
    42a4:	b0000000 	imm	0
    42a8:	b9f4044c 	brlid	r15, 1100	// 46f4 <XAssert>
    42ac:	30c0051d 	addik	r6, r0, 1309
    42b0:	30600001 	addik	r3, r0, 1
    42b4:	b0000000 	imm	0
    42b8:	f8608de4 	swi	r3, r0, -29212	// 8de4 <XAssertStatus>
    42bc:	e9e10000 	lwi	r15, r1, 0
    42c0:	b60f0008 	rtsd	r15, 8
    42c4:	3021001c 	addik	r1, r1, 28
    42c8:	e86500a0 	lwi	r3, r5, 160
    42cc:	d0e33000 	sb	r7, r3, r6
    42d0:	e9e10000 	lwi	r15, r1, 0
    42d4:	b60f0008 	rtsd	r15, 8
    42d8:	3021001c 	addik	r1, r1, 28
    42dc:	b0000000 	imm	0
    42e0:	30a072d4 	addik	r5, r0, 29396
    42e4:	b0000000 	imm	0
    42e8:	b9f4040c 	brlid	r15, 1036	// 46f4 <XAssert>
    42ec:	30c0051c 	addik	r6, r0, 1308
    42f0:	30600001 	addik	r3, r0, 1
    42f4:	b0000000 	imm	0
    42f8:	f8608de4 	swi	r3, r0, -29212	// 8de4 <XAssertStatus>
    42fc:	b810ffc4 	brid	-60		// 42c0
    4300:	e9e10000 	lwi	r15, r1, 0

00004304 <XIOModule_DeviceInterruptHandler>:
    4304:	10652800 	addk	r3, r5, r5
    4308:	10631800 	addk	r3, r3, r3
    430c:	10631800 	addk	r3, r3, r3
    4310:	10a51800 	addk	r5, r5, r3
    4314:	10652800 	addk	r3, r5, r5
    4318:	10631800 	addk	r3, r3, r3
    431c:	10631800 	addk	r3, r3, r3
    4320:	10a51800 	addk	r5, r5, r3
    4324:	10a52800 	addk	r5, r5, r5
    4328:	3021ffcc 	addik	r1, r1, -52
    432c:	10a52800 	addk	r5, r5, r5
    4330:	fa610020 	swi	r19, r1, 32
    4334:	fac10024 	swi	r22, r1, 36
    4338:	fb01002c 	swi	r24, r1, 44
    433c:	fb210030 	swi	r25, r1, 48
    4340:	f9e10000 	swi	r15, r1, 0
    4344:	fae10028 	swi	r23, r1, 40
    4348:	b0000000 	imm	0
    434c:	326589d8 	addik	r19, r5, -30248
    4350:	e8b30004 	lwi	r5, r19, 4
    4354:	33200020 	addik	r25, r0, 32	// 20 <_vector_hw_exception>
    4358:	13000000 	addk	r24, r0, r0
    435c:	eae50034 	lwi	r23, r5, 52
    4360:	32c00001 	addik	r22, r0, 1
    4364:	1078c000 	addk	r3, r24, r24
    4368:	10631800 	addk	r3, r3, r3
    436c:	10631800 	addk	r3, r3, r3
    4370:	a4970001 	andi	r4, r23, 1
    4374:	30630044 	addik	r3, r3, 68
    4378:	92f70041 	srl	r23, r23
    437c:	be04005c 	beqid	r4, 92		// 43d8
    4380:	3339ffff 	addik	r25, r25, -1
    4384:	c8839800 	lw	r4, r3, r19
    4388:	be040050 	beqid	r4, 80		// 43d8
    438c:	10731800 	addk	r3, r19, r3
    4390:	e8d30014 	lwi	r6, r19, 20
    4394:	84d63000 	and	r6, r22, r6
    4398:	bc060008 	beqi	r6, 8		// 43a0
    439c:	fac5003c 	swi	r22, r5, 60
    43a0:	99fc2000 	brald	r15, r4
    43a4:	e8a30004 	lwi	r5, r3, 4
    43a8:	e8730014 	lwi	r3, r19, 20
    43ac:	84761800 	and	r3, r22, r3
    43b0:	bc23000c 	bnei	r3, 12		// 43bc
    43b4:	e8730004 	lwi	r3, r19, 4
    43b8:	fac3003c 	swi	r22, r3, 60
    43bc:	e8b30004 	lwi	r5, r19, 4
    43c0:	e8730018 	lwi	r3, r19, 24
    43c4:	e8850034 	lwi	r4, r5, 52
    43c8:	a8630001 	xori	r3, r3, 1
    43cc:	f881001c 	swi	r4, r1, 28
    43d0:	be03001c 	beqid	r3, 28		// 43ec
    43d4:	e9e10000 	lwi	r15, r1, 0
    43d8:	be170010 	beqid	r23, 16		// 43e8
    43dc:	12d6b000 	addk	r22, r22, r22
    43e0:	be39ff84 	bneid	r25, -124		// 4364
    43e4:	33180001 	addik	r24, r24, 1
    43e8:	e9e10000 	lwi	r15, r1, 0
    43ec:	ea610020 	lwi	r19, r1, 32
    43f0:	eac10024 	lwi	r22, r1, 36
    43f4:	eae10028 	lwi	r23, r1, 40
    43f8:	eb01002c 	lwi	r24, r1, 44
    43fc:	eb210030 	lwi	r25, r1, 48
    4400:	b60f0008 	rtsd	r15, 8
    4404:	30210034 	addik	r1, r1, 52

00004408 <XIOModule_SetIntrSvcOption>:
    4408:	b0000000 	imm	0
    440c:	e86089dc 	lwi	r3, r0, -30244
    4410:	88a51800 	xor	r5, r5, r3
    4414:	bc05000c 	beqi	r5, 12		// 4420
    4418:	b60f0008 	rtsd	r15, 8
    441c:	80000000 	or	r0, r0, r0
    4420:	b0000000 	imm	0
    4424:	306089dc 	addik	r3, r0, -30244
    4428:	b60f0008 	rtsd	r15, 8
    442c:	f8c30014 	swi	r6, r3, 20

00004430 <XIOModule_RegisterHandler>:
    4430:	b0000000 	imm	0
    4434:	e86089dc 	lwi	r3, r0, -30244
    4438:	88a51800 	xor	r5, r5, r3
    443c:	bc05000c 	beqi	r5, 12		// 4448
    4440:	b60f0008 	rtsd	r15, 8
    4444:	80000000 	or	r0, r0, r0
    4448:	30660009 	addik	r3, r6, 9
    444c:	10631800 	addk	r3, r3, r3
    4450:	10c63000 	addk	r6, r6, r6
    4454:	10c63000 	addk	r6, r6, r6
    4458:	10631800 	addk	r3, r3, r3
    445c:	10c63000 	addk	r6, r6, r6
    4460:	10631800 	addk	r3, r3, r3
    4464:	b0000000 	imm	0
    4468:	f8e68a1c 	swi	r7, r6, -30180
    446c:	b0000000 	imm	0
    4470:	f90389d8 	swi	r8, r3, -30248
    4474:	b60f0008 	rtsd	r15, 8
    4478:	80000000 	or	r0, r0, r0

0000447c <XIOModule_SendByte>:
    447c:	30850008 	addik	r4, r5, 8
    4480:	e8640000 	lwi	r3, r4, 0
    4484:	a4630008 	andi	r3, r3, 8
    4488:	bc23fff8 	bnei	r3, -8		// 4480
    448c:	f8c50004 	swi	r6, r5, 4
    4490:	b60f0008 	rtsd	r15, 8
    4494:	80000000 	or	r0, r0, r0

00004498 <XIOModule_RecvByte>:
    4498:	30850008 	addik	r4, r5, 8
    449c:	e8640000 	lwi	r3, r4, 0
    44a0:	a4630001 	andi	r3, r3, 1
    44a4:	bc03fff8 	beqi	r3, -8		// 449c
    44a8:	e8650000 	lwi	r3, r5, 0
    44ac:	b60f0008 	rtsd	r15, 8
    44b0:	a46300ff 	andi	r3, r3, 255

000044b4 <StubHandler>:
    44b4:	b0000000 	imm	0
    44b8:	30a072e0 	addik	r5, r0, 29408
    44bc:	3021ffe4 	addik	r1, r1, -28
    44c0:	f9e10000 	swi	r15, r1, 0
    44c4:	b0000000 	imm	0
    44c8:	b9f40330 	brlid	r15, 816	// 47f8 <Xil_Assert>
    44cc:	30c00109 	addik	r6, r0, 265
    44d0:	e9e10000 	lwi	r15, r1, 0
    44d4:	30600001 	addik	r3, r0, 1
    44d8:	b0000000 	imm	0
    44dc:	f8608de8 	swi	r3, r0, -29208	// 8de8 <Xil_AssertStatus>
    44e0:	b60f0008 	rtsd	r15, 8
    44e4:	3021001c 	addik	r1, r1, 28

000044e8 <XIOModule_CfgInitialize>:
    44e8:	3021ffe4 	addik	r1, r1, -28
    44ec:	be050070 	beqid	r5, 112		// 455c
    44f0:	f9e10000 	swi	r15, r1, 0
    44f4:	b0001111 	imm	4369
    44f8:	30e01111 	addik	r7, r0, 4369
    44fc:	e885005c 	lwi	r4, r5, 92
    4500:	e8c50000 	lwi	r6, r5, 0
    4504:	f8e50004 	swi	r7, r5, 4
    4508:	b0000000 	imm	0
    450c:	30e044b4 	addik	r7, r0, 17588	// 44b4 <StubHandler>
    4510:	a484fff8 	andi	r4, r4, -8
    4514:	f805002c 	swi	r0, r5, 44
    4518:	f8e50044 	swi	r7, r5, 68
    451c:	f8e5004c 	swi	r7, r5, 76
    4520:	f8050034 	swi	r0, r5, 52
    4524:	f8050030 	swi	r0, r5, 48
    4528:	f8050038 	swi	r0, r5, 56
    452c:	f8050040 	swi	r0, r5, 64
    4530:	f805003c 	swi	r0, r5, 60
    4534:	b0000000 	imm	0
    4538:	f8008de8 	swi	r0, r0, -29208	// 8de8 <Xil_AssertStatus>
    453c:	f8860038 	swi	r4, r6, 56
    4540:	b0000000 	imm	0
    4544:	b9f403e4 	brlid	r15, 996	// 4928 <XIOModule_ClearStats>
    4548:	f885005c 	swi	r4, r5, 92
    454c:	e9e10000 	lwi	r15, r1, 0
    4550:	10600000 	addk	r3, r0, r0
    4554:	b60f0008 	rtsd	r15, 8
    4558:	3021001c 	addik	r1, r1, 28
    455c:	b0000000 	imm	0
    4560:	30a072e0 	addik	r5, r0, 29408
    4564:	b0000000 	imm	0
    4568:	b9f40290 	brlid	r15, 656	// 47f8 <Xil_Assert>
    456c:	30c0007d 	addik	r6, r0, 125
    4570:	e9e10000 	lwi	r15, r1, 0
    4574:	30600001 	addik	r3, r0, 1
    4578:	b0000000 	imm	0
    457c:	f8608de8 	swi	r3, r0, -29208	// 8de8 <Xil_AssertStatus>
    4580:	10600000 	addk	r3, r0, r0
    4584:	b60f0008 	rtsd	r15, 8
    4588:	3021001c 	addik	r1, r1, 28

0000458c <XIOModule_SetBaudRate>:
    458c:	3021ffcc 	addik	r1, r1, -52
    4590:	fa61001c 	swi	r19, r1, 28
    4594:	fae10024 	swi	r23, r1, 36
    4598:	f9e10000 	swi	r15, r1, 0
    459c:	fac10020 	swi	r22, r1, 32
    45a0:	fb010028 	swi	r24, r1, 40
    45a4:	fb21002c 	swi	r25, r1, 44
    45a8:	fb410030 	swi	r26, r1, 48
    45ac:	12650000 	addk	r19, r5, r0
    45b0:	be05011c 	beqid	r5, 284		// 46cc
    45b4:	12e60000 	addk	r23, r6, r0
    45b8:	e8650004 	lwi	r3, r5, 4
    45bc:	b0000000 	imm	0
    45c0:	f8008de8 	swi	r0, r0, -29208	// 8de8 <Xil_AssertStatus>
    45c4:	b0001111 	imm	4369
    45c8:	a8631111 	xori	r3, r3, 4369
    45cc:	be2300bc 	bneid	r3, 188		// 4688
    45d0:	10a63000 	addk	r5, r6, r6
    45d4:	eb33000c 	lwi	r25, r19, 12
    45d8:	10a52800 	addk	r5, r5, r5
    45dc:	10a52800 	addk	r5, r5, r5
    45e0:	13052800 	addk	r24, r5, r5
    45e4:	ead9001c 	lwi	r22, r25, 28
    45e8:	10d80000 	addk	r6, r24, r0
    45ec:	b0000000 	imm	0
    45f0:	b9f41a74 	brlid	r15, 6772	// 6064 <__udivsi3>
    45f4:	10a5b000 	addk	r5, r5, r22
    45f8:	10a30000 	addk	r5, r3, r0
    45fc:	10d80000 	addk	r6, r24, r0
    4600:	b0000000 	imm	0
    4604:	b9f41a08 	brlid	r15, 6664	// 600c <__mulsi3>
    4608:	13430000 	addk	r26, r3, r0
    460c:	1643b003 	cmpu	r18, r3, r22
    4610:	beb20070 	bgeid	r18, 112		// 4680
    4614:	14961800 	rsubk	r4, r22, r3
    4618:	10e42000 	addk	r7, r4, r4
    461c:	10e72000 	addk	r7, r7, r4
    4620:	10c73800 	addk	r6, r7, r7
    4624:	10c63000 	addk	r6, r6, r6
    4628:	10c63000 	addk	r6, r6, r6
    462c:	10c63000 	addk	r6, r6, r6
    4630:	10663000 	addk	r3, r6, r6
    4634:	10d60000 	addk	r6, r22, r0
    4638:	10e71800 	addk	r7, r7, r3
    463c:	b0000000 	imm	0
    4640:	b9f41a24 	brlid	r15, 6692	// 6064 <__udivsi3>
    4644:	10a72000 	addk	r5, r7, r4
    4648:	30a00003 	addik	r5, r0, 3
    464c:	16432803 	cmpu	r18, r3, r5
    4650:	beb20060 	bgeid	r18, 96		// 46b0
    4654:	3080041f 	addik	r4, r0, 1055
    4658:	10640000 	addk	r3, r4, r0
    465c:	e9e10000 	lwi	r15, r1, 0
    4660:	ea61001c 	lwi	r19, r1, 28
    4664:	eac10020 	lwi	r22, r1, 32
    4668:	eae10024 	lwi	r23, r1, 36
    466c:	eb010028 	lwi	r24, r1, 40
    4670:	eb21002c 	lwi	r25, r1, 44
    4674:	eb410030 	lwi	r26, r1, 48
    4678:	b60f0008 	rtsd	r15, 8
    467c:	30210034 	addik	r1, r1, 52
    4680:	b810ff98 	brid	-104		// 4618
    4684:	1483b000 	rsubk	r4, r3, r22
    4688:	b0000000 	imm	0
    468c:	30a072e0 	addik	r5, r0, 29408
    4690:	b0000000 	imm	0
    4694:	b9f40164 	brlid	r15, 356	// 47f8 <Xil_Assert>
    4698:	30c000c3 	addik	r6, r0, 195
    469c:	30600001 	addik	r3, r0, 1
    46a0:	b0000000 	imm	0
    46a4:	f8608de8 	swi	r3, r0, -29208	// 8de8 <Xil_AssertStatus>
    46a8:	b810ffb0 	brid	-80		// 4658
    46ac:	10800000 	addk	r4, r0, r0
    46b0:	e8730000 	lwi	r3, r19, 0
    46b4:	335affff 	addik	r26, r26, -1
    46b8:	10800000 	addk	r4, r0, r0
    46bc:	fb43004c 	swi	r26, r3, 76
    46c0:	fb530054 	swi	r26, r19, 84
    46c4:	b810ff94 	brid	-108		// 4658
    46c8:	faf90020 	swi	r23, r25, 32
    46cc:	b0000000 	imm	0
    46d0:	30a072e0 	addik	r5, r0, 29408
    46d4:	b0000000 	imm	0
    46d8:	b9f40120 	brlid	r15, 288	// 47f8 <Xil_Assert>
    46dc:	30c000c2 	addik	r6, r0, 194
    46e0:	30600001 	addik	r3, r0, 1
    46e4:	b0000000 	imm	0
    46e8:	f8608de8 	swi	r3, r0, -29208	// 8de8 <Xil_AssertStatus>
    46ec:	b810ff6c 	brid	-148		// 4658
    46f0:	10930000 	addk	r4, r19, r0

000046f4 <XAssert>:
    46f4:	b0000000 	imm	0
    46f8:	e8608ca4 	lwi	r3, r0, -29532	// 8ca4 <XAssertCallbackRoutine>
    46fc:	3021ffe4 	addik	r1, r1, -28
    4700:	be030010 	beqid	r3, 16		// 4710
    4704:	f9e10000 	swi	r15, r1, 0
    4708:	99fc1800 	brald	r15, r3
    470c:	80000000 	or	r0, r0, r0
    4710:	b0000000 	imm	0
    4714:	e8608b1c 	lwi	r3, r0, -29924	// 8b1c <XWaitInAssert>
    4718:	be230010 	bneid	r3, 16		// 4728
    471c:	e9e10000 	lwi	r15, r1, 0
    4720:	b60f0008 	rtsd	r15, 8
    4724:	3021001c 	addik	r1, r1, 28
    4728:	b8000000 	bri	0		// 4728

0000472c <XAssertSetCallback>:
    472c:	b0000000 	imm	0
    4730:	f8a08ca4 	swi	r5, r0, -29532	// 8ca4 <XAssertCallbackRoutine>
    4734:	b60f0008 	rtsd	r15, 8
    4738:	80000000 	or	r0, r0, r0

0000473c <XNullHandler>:
    473c:	b60f0008 	rtsd	r15, 8
    4740:	80000000 	or	r0, r0, r0

00004744 <microblaze_disable_dcache>:
    4744:	3021ffe4 	addik	r1, r1, -28
    4748:	95608001 	mfs	r11, rmsr
    474c:	a56bff7f 	andi	r11, r11, -129
    4750:	940bc001 	mts	rmsr, r11
    4754:	b60f0008 	rtsd	r15, 8
    4758:	2021001c 	addi	r1, r1, 28

0000475c <microblaze_disable_icache>:
    475c:	2021fffc 	addi	r1, r1, -4
    4760:	95008001 	mfs	r8, rmsr
    4764:	a508ffdf 	andi	r8, r8, -33
    4768:	9408c001 	mts	rmsr, r8
    476c:	b60f0008 	rtsd	r15, 8
    4770:	20210004 	addi	r1, r1, 4

00004774 <microblaze_flush_dcache>:
    4774:	a4a5fff0 	andi	r5, r5, -16
    4778:	b0000001 	imm	1
    477c:	30c50000 	addik	r6, r5, 0
    4780:	a4c6fff0 	andi	r6, r6, -16

00004784 <L_start>:
    4784:	90050074 	wdc.flush	r5, r0
    4788:	16453003 	cmpu	r18, r5, r6
    478c:	bc72000c 	blei	r18, 12	// 4798 <L_done>
    4790:	b810fff4 	brid	-12	// 4784 <L_start>
    4794:	30a50010 	addik	r5, r5, 16

00004798 <L_done>:
    4798:	b60f0008 	rtsd	r15, 8
    479c:	80000000 	or	r0, r0, r0

000047a0 <microblaze_invalidate_dcache>:
    47a0:	a4a5fff0 	andi	r5, r5, -16
    47a4:	b0000001 	imm	1
    47a8:	30c50000 	addik	r6, r5, 0
    47ac:	a4c6fff0 	andi	r6, r6, -16

000047b0 <L_start>:
    47b0:	90050064 	wdc	r5, r0
    47b4:	16453003 	cmpu	r18, r5, r6
    47b8:	bc72000c 	blei	r18, 12	// 47c4 <L_done>
    47bc:	b810fff4 	brid	-12	// 47b0 <L_start>
    47c0:	30a50010 	addik	r5, r5, 16

000047c4 <L_done>:
    47c4:	b60f0008 	rtsd	r15, 8
    47c8:	80000000 	or	r0, r0, r0

000047cc <microblaze_invalidate_icache>:
    47cc:	a4a5fff0 	andi	r5, r5, -16
    47d0:	b0000001 	imm	1
    47d4:	30c50000 	addik	r6, r5, 0
    47d8:	a4c6fff0 	andi	r6, r6, -16

000047dc <L_start>:
    47dc:	90050068 	wic	r5, r0
    47e0:	16453003 	cmpu	r18, r5, r6
    47e4:	bc72000c 	blei	r18, 12	// 47f0 <L_done>
    47e8:	b810fff4 	brid	-12	// 47dc <L_start>
    47ec:	30a50010 	addik	r5, r5, 16

000047f0 <L_done>:
    47f0:	b60f0008 	rtsd	r15, 8
    47f4:	80000000 	or	r0, r0, r0

000047f8 <Xil_Assert>:
    47f8:	b0000000 	imm	0
    47fc:	e8608ca8 	lwi	r3, r0, -29528	// 8ca8 <Xil_AssertCallbackRoutine>
    4800:	3021ffe4 	addik	r1, r1, -28
    4804:	be030010 	beqid	r3, 16		// 4814
    4808:	f9e10000 	swi	r15, r1, 0
    480c:	99fc1800 	brald	r15, r3
    4810:	80000000 	or	r0, r0, r0
    4814:	b0000000 	imm	0
    4818:	e8608b20 	lwi	r3, r0, -29920	// 8b20 <Xil_AssertWait>
    481c:	be230010 	bneid	r3, 16		// 482c
    4820:	e9e10000 	lwi	r15, r1, 0
    4824:	b60f0008 	rtsd	r15, 8
    4828:	3021001c 	addik	r1, r1, 28
    482c:	b8000000 	bri	0		// 482c

00004830 <Xil_AssertSetCallback>:
    4830:	b0000000 	imm	0
    4834:	f8a08ca8 	swi	r5, r0, -29528	// 8ca8 <Xil_AssertCallbackRoutine>
    4838:	b60f0008 	rtsd	r15, 8
    483c:	80000000 	or	r0, r0, r0

00004840 <XIOModule_GetStats>:
    4840:	3021ffe4 	addik	r1, r1, -28
    4844:	be050094 	beqid	r5, 148		// 48d8
    4848:	f9e10000 	swi	r15, r1, 0
    484c:	b0000000 	imm	0
    4850:	f8008de8 	swi	r0, r0, -29208	// 8de8 <Xil_AssertStatus>
    4854:	bc0600ac 	beqi	r6, 172		// 4900
    4858:	e8650004 	lwi	r3, r5, 4
    485c:	b0001111 	imm	4369
    4860:	a8631111 	xori	r3, r3, 4369
    4864:	bc030030 	beqi	r3, 48		// 4894
    4868:	b0000000 	imm	0
    486c:	30a072f4 	addik	r5, r0, 29428
    4870:	b000ffff 	imm	-1
    4874:	b9f4ff84 	brlid	r15, -124	// 47f8 <Xil_Assert>
    4878:	30c00066 	addik	r6, r0, 102
    487c:	30600001 	addik	r3, r0, 1
    4880:	b0000000 	imm	0
    4884:	f8608de8 	swi	r3, r0, -29208	// 8de8 <Xil_AssertStatus>
    4888:	e9e10000 	lwi	r15, r1, 0
    488c:	b60f0008 	rtsd	r15, 8
    4890:	3021001c 	addik	r1, r1, 28
    4894:	e8650010 	lwi	r3, r5, 16
    4898:	f8660000 	swi	r3, r6, 0
    489c:	e8650014 	lwi	r3, r5, 20
    48a0:	f8660004 	swi	r3, r6, 4
    48a4:	e8650018 	lwi	r3, r5, 24
    48a8:	f8660008 	swi	r3, r6, 8
    48ac:	e865001c 	lwi	r3, r5, 28
    48b0:	f866000c 	swi	r3, r6, 12
    48b4:	e8650020 	lwi	r3, r5, 32
    48b8:	f8660010 	swi	r3, r6, 16
    48bc:	e8650028 	lwi	r3, r5, 40
    48c0:	e8a50024 	lwi	r5, r5, 36
    48c4:	f8660018 	swi	r3, r6, 24
    48c8:	f8a60014 	swi	r5, r6, 20
    48cc:	e9e10000 	lwi	r15, r1, 0
    48d0:	b60f0008 	rtsd	r15, 8
    48d4:	3021001c 	addik	r1, r1, 28
    48d8:	b0000000 	imm	0
    48dc:	30a072f4 	addik	r5, r0, 29428
    48e0:	b000ffff 	imm	-1
    48e4:	b9f4ff14 	brlid	r15, -236	// 47f8 <Xil_Assert>
    48e8:	30c00064 	addik	r6, r0, 100
    48ec:	30600001 	addik	r3, r0, 1
    48f0:	b0000000 	imm	0
    48f4:	f8608de8 	swi	r3, r0, -29208	// 8de8 <Xil_AssertStatus>
    48f8:	b810ff94 	brid	-108		// 488c
    48fc:	e9e10000 	lwi	r15, r1, 0
    4900:	b0000000 	imm	0
    4904:	30a072f4 	addik	r5, r0, 29428
    4908:	b000ffff 	imm	-1
    490c:	b9f4feec 	brlid	r15, -276	// 47f8 <Xil_Assert>
    4910:	30c00065 	addik	r6, r0, 101
    4914:	30600001 	addik	r3, r0, 1
    4918:	b0000000 	imm	0
    491c:	f8608de8 	swi	r3, r0, -29208	// 8de8 <Xil_AssertStatus>
    4920:	b810ff6c 	brid	-148		// 488c
    4924:	e9e10000 	lwi	r15, r1, 0

00004928 <XIOModule_ClearStats>:
    4928:	3021ffe4 	addik	r1, r1, -28
    492c:	be050074 	beqid	r5, 116		// 49a0
    4930:	f9e10000 	swi	r15, r1, 0
    4934:	e8650004 	lwi	r3, r5, 4
    4938:	b0000000 	imm	0
    493c:	f8008de8 	swi	r0, r0, -29208	// 8de8 <Xil_AssertStatus>
    4940:	b0001111 	imm	4369
    4944:	a8631111 	xori	r3, r3, 4369
    4948:	bc030030 	beqi	r3, 48		// 4978
    494c:	b0000000 	imm	0
    4950:	30a072f4 	addik	r5, r0, 29428
    4954:	b000ffff 	imm	-1
    4958:	b9f4fea0 	brlid	r15, -352	// 47f8 <Xil_Assert>
    495c:	30c0008c 	addik	r6, r0, 140
    4960:	30600001 	addik	r3, r0, 1
    4964:	b0000000 	imm	0
    4968:	f8608de8 	swi	r3, r0, -29208	// 8de8 <Xil_AssertStatus>
    496c:	e9e10000 	lwi	r15, r1, 0
    4970:	b60f0008 	rtsd	r15, 8
    4974:	3021001c 	addik	r1, r1, 28
    4978:	f8650010 	swi	r3, r5, 16
    497c:	f8650014 	swi	r3, r5, 20
    4980:	f8650018 	swi	r3, r5, 24
    4984:	f865001c 	swi	r3, r5, 28
    4988:	f8650020 	swi	r3, r5, 32
    498c:	f8650024 	swi	r3, r5, 36
    4990:	f8650028 	swi	r3, r5, 40
    4994:	e9e10000 	lwi	r15, r1, 0
    4998:	b60f0008 	rtsd	r15, 8
    499c:	3021001c 	addik	r1, r1, 28
    49a0:	b0000000 	imm	0
    49a4:	30a072f4 	addik	r5, r0, 29428
    49a8:	b000ffff 	imm	-1
    49ac:	b9f4fe4c 	brlid	r15, -436	// 47f8 <Xil_Assert>
    49b0:	30c0008b 	addik	r6, r0, 139
    49b4:	30600001 	addik	r3, r0, 1
    49b8:	b0000000 	imm	0
    49bc:	f8608de8 	swi	r3, r0, -29208	// 8de8 <Xil_AssertStatus>
    49c0:	b810ffb0 	brid	-80		// 4970
    49c4:	e9e10000 	lwi	r15, r1, 0

000049c8 <__divdi3>:
    49c8:	11280000 	addk	r9, r8, r0
    49cc:	3021ffb4 	addik	r1, r1, -76
    49d0:	fb210030 	swi	r25, r1, 48
    49d4:	f9e10000 	swi	r15, r1, 0
    49d8:	fa610020 	swi	r19, r1, 32
    49dc:	fac10024 	swi	r22, r1, 36
    49e0:	fae10028 	swi	r23, r1, 40
    49e4:	fb01002c 	swi	r24, r1, 44
    49e8:	fb410034 	swi	r26, r1, 52
    49ec:	fb610038 	swi	r27, r1, 56
    49f0:	fb81003c 	swi	r28, r1, 60
    49f4:	fba10040 	swi	r29, r1, 64
    49f8:	fbc10044 	swi	r30, r1, 68
    49fc:	fbe10048 	swi	r31, r1, 72
    4a00:	10850000 	addk	r4, r5, r0
    4a04:	11070000 	addk	r8, r7, r0
    4a08:	10a60000 	addk	r5, r6, r0
    4a0c:	10690000 	addk	r3, r9, r0
    4a10:	be4603b0 	bltid	r6, 944		// 4dc0
    4a14:	13200000 	addk	r25, r0, r0
    4a18:	bc4303b8 	blti	r3, 952		// 4dd0
    4a1c:	10690000 	addk	r3, r9, r0
    4a20:	12680000 	addk	r19, r8, r0
    4a24:	12e40000 	addk	r23, r4, r0
    4a28:	be290334 	bneid	r9, 820		// 4d5c
    4a2c:	12c50000 	addk	r22, r5, r0
    4a30:	16482803 	cmpu	r18, r8, r5
    4a34:	bcb2042c 	bgei	r18, 1068		// 4e60
    4a38:	b0000000 	imm	0
    4a3c:	3060ffff 	addik	r3, r0, -1
    4a40:	16481803 	cmpu	r18, r8, r3
    4a44:	beb206ec 	bgeid	r18, 1772		// 5130
    4a48:	306000ff 	addik	r3, r0, 255
    4a4c:	b00000ff 	imm	255
    4a50:	3060ffff 	addik	r3, r0, -1
    4a54:	16481803 	cmpu	r18, r8, r3
    4a58:	be520f1c 	bltid	r18, 3868		// 5974
    4a5c:	30600018 	addik	r3, r0, 24
    4a60:	30600010 	addik	r3, r0, 16	// 10 <_vector_interrupt>
    4a64:	10830000 	addk	r4, r3, r0
    4a68:	a643001f 	andi	r18, r3, 31
    4a6c:	10a09800 	addk	r5, r0, r19
    4a70:	be120014 	beqid	r18, 20		// 4a84
    4a74:	10a50000 	addk	r5, r5, r0
    4a78:	3252ffff 	addik	r18, r18, -1
    4a7c:	be32fffc 	bneid	r18, -4		// 4a78
    4a80:	90a50041 	srl	r5, r5
    4a84:	b0000000 	imm	0
    4a88:	e065731c 	lbui	r3, r5, 29468
    4a8c:	30a00020 	addik	r5, r0, 32	// 20 <_vector_hw_exception>
    4a90:	10832000 	addk	r4, r3, r4
    4a94:	14642800 	rsubk	r3, r4, r5
    4a98:	be03008c 	beqid	r3, 140		// 4b24
    4a9c:	10b60000 	addk	r5, r22, r0
    4aa0:	a644001f 	andi	r18, r4, 31
    4aa4:	10a0b800 	addk	r5, r0, r23
    4aa8:	be120014 	beqid	r18, 20		// 4abc
    4aac:	10a50000 	addk	r5, r5, r0
    4ab0:	3252ffff 	addik	r18, r18, -1
    4ab4:	be32fffc 	bneid	r18, -4		// 4ab0
    4ab8:	90a50041 	srl	r5, r5
    4abc:	a643001f 	andi	r18, r3, 31
    4ac0:	1080b000 	addk	r4, r0, r22
    4ac4:	be120014 	beqid	r18, 20		// 4ad8
    4ac8:	10840000 	addk	r4, r4, r0
    4acc:	3252ffff 	addik	r18, r18, -1
    4ad0:	be32fffc 	bneid	r18, -4		// 4acc
    4ad4:	10842000 	addk	r4, r4, r4
    4ad8:	a643001f 	andi	r18, r3, 31
    4adc:	10e09800 	addk	r7, r0, r19
    4ae0:	be120014 	beqid	r18, 20		// 4af4
    4ae4:	10e70000 	addk	r7, r7, r0
    4ae8:	3252ffff 	addik	r18, r18, -1
    4aec:	be32fffc 	bneid	r18, -4		// 4ae8
    4af0:	10e73800 	addk	r7, r7, r7
    4af4:	82c42800 	or	r22, r4, r5
    4af8:	12670000 	addk	r19, r7, r0
    4afc:	a643001f 	andi	r18, r3, 31
    4b00:	1080b800 	addk	r4, r0, r23
    4b04:	be120014 	beqid	r18, 20		// 4b18
    4b08:	10840000 	addk	r4, r4, r0
    4b0c:	3252ffff 	addik	r18, r18, -1
    4b10:	be32fffc 	bneid	r18, -4		// 4b0c
    4b14:	10842000 	addk	r4, r4, r4
    4b18:	12e40000 	addk	r23, r4, r0
    4b1c:	f881001c 	swi	r4, r1, 28
    4b20:	10b60000 	addk	r5, r22, r0
    4b24:	13009800 	addk	r24, r0, r19
    4b28:	93130041 	srl	r24, r19
    4b2c:	93180041 	srl	r24, r24
    4b30:	93180041 	srl	r24, r24
    4b34:	93180041 	srl	r24, r24
    4b38:	93180041 	srl	r24, r24
    4b3c:	93180041 	srl	r24, r24
    4b40:	93180041 	srl	r24, r24
    4b44:	93180041 	srl	r24, r24
    4b48:	93180041 	srl	r24, r24
    4b4c:	93180041 	srl	r24, r24
    4b50:	93180041 	srl	r24, r24
    4b54:	93180041 	srl	r24, r24
    4b58:	93180041 	srl	r24, r24
    4b5c:	93180041 	srl	r24, r24
    4b60:	93180041 	srl	r24, r24
    4b64:	93180041 	srl	r24, r24
    4b68:	b0000000 	imm	0
    4b6c:	a773ffff 	andi	r27, r19, -1
    4b70:	b0000000 	imm	0
    4b74:	b9f41598 	brlid	r15, 5528	// 610c <__umodsi3>
    4b78:	10d80000 	addk	r6, r24, r0
    4b7c:	10b60000 	addk	r5, r22, r0
    4b80:	10d80000 	addk	r6, r24, r0
    4b84:	b0000000 	imm	0
    4b88:	b9f414dc 	brlid	r15, 5340	// 6064 <__udivsi3>
    4b8c:	13430000 	addk	r26, r3, r0
    4b90:	10a30000 	addk	r5, r3, r0
    4b94:	10db0000 	addk	r6, r27, r0
    4b98:	b0000000 	imm	0
    4b9c:	b9f41470 	brlid	r15, 5232	// 600c <__mulsi3>
    4ba0:	12c30000 	addk	r22, r3, r0
    4ba4:	109ad000 	addk	r4, r26, r26
    4ba8:	10842000 	addk	r4, r4, r4
    4bac:	10842000 	addk	r4, r4, r4
    4bb0:	10842000 	addk	r4, r4, r4
    4bb4:	10842000 	addk	r4, r4, r4
    4bb8:	10842000 	addk	r4, r4, r4
    4bbc:	10842000 	addk	r4, r4, r4
    4bc0:	10842000 	addk	r4, r4, r4
    4bc4:	10842000 	addk	r4, r4, r4
    4bc8:	10842000 	addk	r4, r4, r4
    4bcc:	10842000 	addk	r4, r4, r4
    4bd0:	10842000 	addk	r4, r4, r4
    4bd4:	10842000 	addk	r4, r4, r4
    4bd8:	10842000 	addk	r4, r4, r4
    4bdc:	10a30000 	addk	r5, r3, r0
    4be0:	10842000 	addk	r4, r4, r4
    4be4:	10842000 	addk	r4, r4, r4
    4be8:	1060b800 	addk	r3, r0, r23
    4bec:	90770041 	srl	r3, r23
    4bf0:	90630041 	srl	r3, r3
    4bf4:	90630041 	srl	r3, r3
    4bf8:	90630041 	srl	r3, r3
    4bfc:	90630041 	srl	r3, r3
    4c00:	90630041 	srl	r3, r3
    4c04:	90630041 	srl	r3, r3
    4c08:	90630041 	srl	r3, r3
    4c0c:	90630041 	srl	r3, r3
    4c10:	90630041 	srl	r3, r3
    4c14:	90630041 	srl	r3, r3
    4c18:	90630041 	srl	r3, r3
    4c1c:	90630041 	srl	r3, r3
    4c20:	90630041 	srl	r3, r3
    4c24:	90630041 	srl	r3, r3
    4c28:	90630041 	srl	r3, r3
    4c2c:	80841800 	or	r4, r4, r3
    4c30:	16452003 	cmpu	r18, r5, r4
    4c34:	beb2002c 	bgeid	r18, 44		// 4c60
    4c38:	17852000 	rsubk	r28, r5, r4
    4c3c:	10849800 	addk	r4, r4, r19
    4c40:	16532003 	cmpu	r18, r19, r4
    4c44:	be520014 	bltid	r18, 20		// 4c58
    4c48:	3076ffff 	addik	r3, r22, -1
    4c4c:	16452003 	cmpu	r18, r5, r4
    4c50:	be520d58 	bltid	r18, 3416		// 59a8
    4c54:	32d6fffe 	addik	r22, r22, -2
    4c58:	12c30000 	addk	r22, r3, r0
    4c5c:	17852000 	rsubk	r28, r5, r4
    4c60:	10d80000 	addk	r6, r24, r0
    4c64:	b0000000 	imm	0
    4c68:	a6f7ffff 	andi	r23, r23, -1
    4c6c:	b0000000 	imm	0
    4c70:	b9f4149c 	brlid	r15, 5276	// 610c <__umodsi3>
    4c74:	10bc0000 	addk	r5, r28, r0
    4c78:	10d80000 	addk	r6, r24, r0
    4c7c:	10bc0000 	addk	r5, r28, r0
    4c80:	b0000000 	imm	0
    4c84:	b9f413e0 	brlid	r15, 5088	// 6064 <__udivsi3>
    4c88:	13430000 	addk	r26, r3, r0
    4c8c:	10a30000 	addk	r5, r3, r0
    4c90:	10db0000 	addk	r6, r27, r0
    4c94:	b0000000 	imm	0
    4c98:	b9f41374 	brlid	r15, 4980	// 600c <__mulsi3>
    4c9c:	13030000 	addk	r24, r3, r0
    4ca0:	10830000 	addk	r4, r3, r0
    4ca4:	107ad000 	addk	r3, r26, r26
    4ca8:	10631800 	addk	r3, r3, r3
    4cac:	10631800 	addk	r3, r3, r3
    4cb0:	10631800 	addk	r3, r3, r3
    4cb4:	10631800 	addk	r3, r3, r3
    4cb8:	10631800 	addk	r3, r3, r3
    4cbc:	10631800 	addk	r3, r3, r3
    4cc0:	10631800 	addk	r3, r3, r3
    4cc4:	10631800 	addk	r3, r3, r3
    4cc8:	10631800 	addk	r3, r3, r3
    4ccc:	10631800 	addk	r3, r3, r3
    4cd0:	10631800 	addk	r3, r3, r3
    4cd4:	10631800 	addk	r3, r3, r3
    4cd8:	10631800 	addk	r3, r3, r3
    4cdc:	10631800 	addk	r3, r3, r3
    4ce0:	10631800 	addk	r3, r3, r3
    4ce4:	8063b800 	or	r3, r3, r23
    4ce8:	16441803 	cmpu	r18, r4, r3
    4cec:	bcb20024 	bgei	r18, 36		// 4d10
    4cf0:	10639800 	addk	r3, r3, r19
    4cf4:	16531803 	cmpu	r18, r19, r3
    4cf8:	be520014 	bltid	r18, 20		// 4d0c
    4cfc:	30b8ffff 	addik	r5, r24, -1
    4d00:	16441803 	cmpu	r18, r4, r3
    4d04:	be52000c 	bltid	r18, 12		// 4d10
    4d08:	3318fffe 	addik	r24, r24, -2
    4d0c:	13050000 	addk	r24, r5, r0
    4d10:	1076b000 	addk	r3, r22, r22
    4d14:	10631800 	addk	r3, r3, r3
    4d18:	10631800 	addk	r3, r3, r3
    4d1c:	10631800 	addk	r3, r3, r3
    4d20:	10631800 	addk	r3, r3, r3
    4d24:	10631800 	addk	r3, r3, r3
    4d28:	10631800 	addk	r3, r3, r3
    4d2c:	10631800 	addk	r3, r3, r3
    4d30:	10631800 	addk	r3, r3, r3
    4d34:	10631800 	addk	r3, r3, r3
    4d38:	10631800 	addk	r3, r3, r3
    4d3c:	10631800 	addk	r3, r3, r3
    4d40:	10631800 	addk	r3, r3, r3
    4d44:	10631800 	addk	r3, r3, r3
    4d48:	10631800 	addk	r3, r3, r3
    4d4c:	10631800 	addk	r3, r3, r3
    4d50:	80781800 	or	r3, r24, r3
    4d54:	b8100018 	brid	24		// 4d6c
    4d58:	13000000 	addk	r24, r0, r0
    4d5c:	16492803 	cmpu	r18, r9, r5
    4d60:	beb20080 	bgeid	r18, 128		// 4de0
    4d64:	13000000 	addk	r24, r0, r0
    4d68:	10780000 	addk	r3, r24, r0
    4d6c:	10830000 	addk	r4, r3, r0
    4d70:	be190010 	beqid	r25, 16		// 4d80
    4d74:	10b80000 	addk	r5, r24, r0
    4d78:	04840000 	rsub	r4, r4, r0
    4d7c:	0ca50000 	rsubc	r5, r5, r0
    4d80:	10640000 	addk	r3, r4, r0
    4d84:	10850000 	addk	r4, r5, r0
    4d88:	e9e10000 	lwi	r15, r1, 0
    4d8c:	ea610020 	lwi	r19, r1, 32
    4d90:	eac10024 	lwi	r22, r1, 36
    4d94:	eae10028 	lwi	r23, r1, 40
    4d98:	eb01002c 	lwi	r24, r1, 44
    4d9c:	eb210030 	lwi	r25, r1, 48
    4da0:	eb410034 	lwi	r26, r1, 52
    4da4:	eb610038 	lwi	r27, r1, 56
    4da8:	eb81003c 	lwi	r28, r1, 60
    4dac:	eba10040 	lwi	r29, r1, 64
    4db0:	ebc10044 	lwi	r30, r1, 68
    4db4:	ebe10048 	lwi	r31, r1, 72
    4db8:	b60f0008 	rtsd	r15, 8
    4dbc:	3021004c 	addik	r1, r1, 76
    4dc0:	04840000 	rsub	r4, r4, r0
    4dc4:	0ca50000 	rsubc	r5, r5, r0
    4dc8:	bea3fc54 	bgeid	r3, -940		// 4a1c
    4dcc:	3320ffff 	addik	r25, r0, -1
    4dd0:	05080000 	rsub	r8, r8, r0
    4dd4:	0d290000 	rsubc	r9, r9, r0
    4dd8:	b810fc44 	brid	-956		// 4a1c
    4ddc:	ab39ffff 	xori	r25, r25, -1
    4de0:	b0000000 	imm	0
    4de4:	3080ffff 	addik	r4, r0, -1
    4de8:	16492003 	cmpu	r18, r9, r4
    4dec:	beb20358 	bgeid	r18, 856		// 5144
    4df0:	308000ff 	addik	r4, r0, 255
    4df4:	b00000ff 	imm	255
    4df8:	3080ffff 	addik	r4, r0, -1
    4dfc:	16492003 	cmpu	r18, r9, r4
    4e00:	be520b64 	bltid	r18, 2916		// 5964
    4e04:	30800018 	addik	r4, r0, 24
    4e08:	30800010 	addik	r4, r0, 16	// 10 <_vector_interrupt>
    4e0c:	10a40000 	addk	r5, r4, r0
    4e10:	a644001f 	andi	r18, r4, 31
    4e14:	10c01800 	addk	r6, r0, r3
    4e18:	be120014 	beqid	r18, 20		// 4e2c
    4e1c:	10c60000 	addk	r6, r6, r0
    4e20:	3252ffff 	addik	r18, r18, -1
    4e24:	be32fffc 	bneid	r18, -4		// 4e20
    4e28:	90c60041 	srl	r6, r6
    4e2c:	b0000000 	imm	0
    4e30:	e086731c 	lbui	r4, r6, 29468
    4e34:	10842800 	addk	r4, r4, r5
    4e38:	30a00020 	addik	r5, r0, 32	// 20 <_vector_hw_exception>
    4e3c:	17042800 	rsubk	r24, r4, r5
    4e40:	bc380318 	bnei	r24, 792		// 5158
    4e44:	1653b803 	cmpu	r18, r19, r23
    4e48:	bcb2000c 	bgei	r18, 12		// 4e54
    4e4c:	16561803 	cmpu	r18, r22, r3
    4e50:	bcb2ff18 	bgei	r18, -232		// 4d68
    4e54:	13000000 	addk	r24, r0, r0
    4e58:	b810ff14 	brid	-236		// 4d6c
    4e5c:	30600001 	addik	r3, r0, 1
    4e60:	be280018 	bneid	r8, 24		// 4e78
    4e64:	10c80000 	addk	r6, r8, r0
    4e68:	b0000000 	imm	0
    4e6c:	b9f411f8 	brlid	r15, 4600	// 6064 <__udivsi3>
    4e70:	30a00001 	addik	r5, r0, 1
    4e74:	12630000 	addk	r19, r3, r0
    4e78:	b0000000 	imm	0
    4e7c:	3060ffff 	addik	r3, r0, -1
    4e80:	16531803 	cmpu	r18, r19, r3
    4e84:	beb20298 	bgeid	r18, 664		// 511c
    4e88:	306000ff 	addik	r3, r0, 255
    4e8c:	b00000ff 	imm	255
    4e90:	3060ffff 	addik	r3, r0, -1
    4e94:	16531803 	cmpu	r18, r19, r3
    4e98:	be520ad4 	bltid	r18, 2772		// 596c
    4e9c:	30600018 	addik	r3, r0, 24
    4ea0:	30600010 	addik	r3, r0, 16	// 10 <_vector_interrupt>
    4ea4:	10830000 	addk	r4, r3, r0
    4ea8:	a643001f 	andi	r18, r3, 31
    4eac:	10a09800 	addk	r5, r0, r19
    4eb0:	be120014 	beqid	r18, 20		// 4ec4
    4eb4:	10a50000 	addk	r5, r5, r0
    4eb8:	3252ffff 	addik	r18, r18, -1
    4ebc:	be32fffc 	bneid	r18, -4		// 4eb8
    4ec0:	90a50041 	srl	r5, r5
    4ec4:	b0000000 	imm	0
    4ec8:	e0e5731c 	lbui	r7, r5, 29468
    4ecc:	30a00020 	addik	r5, r0, 32	// 20 <_vector_hw_exception>
    4ed0:	10e72000 	addk	r7, r7, r4
    4ed4:	14672800 	rsubk	r3, r7, r5
    4ed8:	be230794 	bneid	r3, 1940		// 566c
    4edc:	33000001 	addik	r24, r0, 1
    4ee0:	16d3b000 	rsubk	r22, r19, r22
    4ee4:	b0000000 	imm	0
    4ee8:	a773ffff 	andi	r27, r19, -1
    4eec:	13409800 	addk	r26, r0, r19
    4ef0:	93530041 	srl	r26, r19
    4ef4:	935a0041 	srl	r26, r26
    4ef8:	935a0041 	srl	r26, r26
    4efc:	935a0041 	srl	r26, r26
    4f00:	935a0041 	srl	r26, r26
    4f04:	935a0041 	srl	r26, r26
    4f08:	935a0041 	srl	r26, r26
    4f0c:	935a0041 	srl	r26, r26
    4f10:	935a0041 	srl	r26, r26
    4f14:	935a0041 	srl	r26, r26
    4f18:	935a0041 	srl	r26, r26
    4f1c:	935a0041 	srl	r26, r26
    4f20:	935a0041 	srl	r26, r26
    4f24:	935a0041 	srl	r26, r26
    4f28:	935a0041 	srl	r26, r26
    4f2c:	935a0041 	srl	r26, r26
    4f30:	10b60000 	addk	r5, r22, r0
    4f34:	b0000000 	imm	0
    4f38:	b9f411d4 	brlid	r15, 4564	// 610c <__umodsi3>
    4f3c:	10da0000 	addk	r6, r26, r0
    4f40:	10b60000 	addk	r5, r22, r0
    4f44:	10da0000 	addk	r6, r26, r0
    4f48:	b0000000 	imm	0
    4f4c:	b9f41118 	brlid	r15, 4376	// 6064 <__udivsi3>
    4f50:	13830000 	addk	r28, r3, r0
    4f54:	10a30000 	addk	r5, r3, r0
    4f58:	10db0000 	addk	r6, r27, r0
    4f5c:	b0000000 	imm	0
    4f60:	b9f410ac 	brlid	r15, 4268	// 600c <__mulsi3>
    4f64:	12c30000 	addk	r22, r3, r0
    4f68:	109ce000 	addk	r4, r28, r28
    4f6c:	10842000 	addk	r4, r4, r4
    4f70:	10842000 	addk	r4, r4, r4
    4f74:	10842000 	addk	r4, r4, r4
    4f78:	10842000 	addk	r4, r4, r4
    4f7c:	10842000 	addk	r4, r4, r4
    4f80:	10842000 	addk	r4, r4, r4
    4f84:	10842000 	addk	r4, r4, r4
    4f88:	10842000 	addk	r4, r4, r4
    4f8c:	10842000 	addk	r4, r4, r4
    4f90:	10842000 	addk	r4, r4, r4
    4f94:	10842000 	addk	r4, r4, r4
    4f98:	10842000 	addk	r4, r4, r4
    4f9c:	10842000 	addk	r4, r4, r4
    4fa0:	10a30000 	addk	r5, r3, r0
    4fa4:	10842000 	addk	r4, r4, r4
    4fa8:	10842000 	addk	r4, r4, r4
    4fac:	1060b800 	addk	r3, r0, r23
    4fb0:	90770041 	srl	r3, r23
    4fb4:	90630041 	srl	r3, r3
    4fb8:	90630041 	srl	r3, r3
    4fbc:	90630041 	srl	r3, r3
    4fc0:	90630041 	srl	r3, r3
    4fc4:	90630041 	srl	r3, r3
    4fc8:	90630041 	srl	r3, r3
    4fcc:	90630041 	srl	r3, r3
    4fd0:	90630041 	srl	r3, r3
    4fd4:	90630041 	srl	r3, r3
    4fd8:	90630041 	srl	r3, r3
    4fdc:	90630041 	srl	r3, r3
    4fe0:	90630041 	srl	r3, r3
    4fe4:	90630041 	srl	r3, r3
    4fe8:	90630041 	srl	r3, r3
    4fec:	90630041 	srl	r3, r3
    4ff0:	80841800 	or	r4, r4, r3
    4ff4:	16452003 	cmpu	r18, r5, r4
    4ff8:	beb2002c 	bgeid	r18, 44		// 5024
    4ffc:	17a52000 	rsubk	r29, r5, r4
    5000:	10849800 	addk	r4, r4, r19
    5004:	16532003 	cmpu	r18, r19, r4
    5008:	be520014 	bltid	r18, 20		// 501c
    500c:	3076ffff 	addik	r3, r22, -1
    5010:	16452003 	cmpu	r18, r5, r4
    5014:	be52099c 	bltid	r18, 2460		// 59b0
    5018:	32d6fffe 	addik	r22, r22, -2
    501c:	12c30000 	addk	r22, r3, r0
    5020:	17a52000 	rsubk	r29, r5, r4
    5024:	10da0000 	addk	r6, r26, r0
    5028:	b0000000 	imm	0
    502c:	a6f7ffff 	andi	r23, r23, -1
    5030:	b0000000 	imm	0
    5034:	b9f410d8 	brlid	r15, 4312	// 610c <__umodsi3>
    5038:	10bd0000 	addk	r5, r29, r0
    503c:	10da0000 	addk	r6, r26, r0
    5040:	10bd0000 	addk	r5, r29, r0
    5044:	b0000000 	imm	0
    5048:	b9f4101c 	brlid	r15, 4124	// 6064 <__udivsi3>
    504c:	13830000 	addk	r28, r3, r0
    5050:	10a30000 	addk	r5, r3, r0
    5054:	10db0000 	addk	r6, r27, r0
    5058:	b0000000 	imm	0
    505c:	b9f40fb0 	brlid	r15, 4016	// 600c <__mulsi3>
    5060:	13430000 	addk	r26, r3, r0
    5064:	10830000 	addk	r4, r3, r0
    5068:	107ce000 	addk	r3, r28, r28
    506c:	10631800 	addk	r3, r3, r3
    5070:	10631800 	addk	r3, r3, r3
    5074:	10631800 	addk	r3, r3, r3
    5078:	10631800 	addk	r3, r3, r3
    507c:	10631800 	addk	r3, r3, r3
    5080:	10631800 	addk	r3, r3, r3
    5084:	10631800 	addk	r3, r3, r3
    5088:	10631800 	addk	r3, r3, r3
    508c:	10631800 	addk	r3, r3, r3
    5090:	10631800 	addk	r3, r3, r3
    5094:	10631800 	addk	r3, r3, r3
    5098:	10631800 	addk	r3, r3, r3
    509c:	10631800 	addk	r3, r3, r3
    50a0:	10631800 	addk	r3, r3, r3
    50a4:	10631800 	addk	r3, r3, r3
    50a8:	8063b800 	or	r3, r3, r23
    50ac:	16441803 	cmpu	r18, r4, r3
    50b0:	bcb20024 	bgei	r18, 36		// 50d4
    50b4:	10639800 	addk	r3, r3, r19
    50b8:	16531803 	cmpu	r18, r19, r3
    50bc:	be520014 	bltid	r18, 20		// 50d0
    50c0:	30baffff 	addik	r5, r26, -1
    50c4:	16441803 	cmpu	r18, r4, r3
    50c8:	be52000c 	bltid	r18, 12		// 50d4
    50cc:	335afffe 	addik	r26, r26, -2
    50d0:	13450000 	addk	r26, r5, r0
    50d4:	1076b000 	addk	r3, r22, r22
    50d8:	10631800 	addk	r3, r3, r3
    50dc:	10631800 	addk	r3, r3, r3
    50e0:	10631800 	addk	r3, r3, r3
    50e4:	10631800 	addk	r3, r3, r3
    50e8:	10631800 	addk	r3, r3, r3
    50ec:	10631800 	addk	r3, r3, r3
    50f0:	10631800 	addk	r3, r3, r3
    50f4:	10631800 	addk	r3, r3, r3
    50f8:	10631800 	addk	r3, r3, r3
    50fc:	10631800 	addk	r3, r3, r3
    5100:	10631800 	addk	r3, r3, r3
    5104:	10631800 	addk	r3, r3, r3
    5108:	10631800 	addk	r3, r3, r3
    510c:	10631800 	addk	r3, r3, r3
    5110:	10631800 	addk	r3, r3, r3
    5114:	b810fc58 	brid	-936		// 4d6c
    5118:	807a1800 	or	r3, r26, r3
    511c:	16531803 	cmpu	r18, r19, r3
    5120:	bc52085c 	blti	r18, 2140		// 597c
    5124:	10600000 	addk	r3, r0, r0
    5128:	b810fd80 	brid	-640		// 4ea8
    512c:	10830000 	addk	r4, r3, r0
    5130:	16481803 	cmpu	r18, r8, r3
    5134:	bc520824 	blti	r18, 2084		// 5958
    5138:	10690000 	addk	r3, r9, r0
    513c:	b810f92c 	brid	-1748		// 4a68
    5140:	10890000 	addk	r4, r9, r0
    5144:	16492003 	cmpu	r18, r9, r4
    5148:	bc520804 	blti	r18, 2052		// 594c
    514c:	10800000 	addk	r4, r0, r0
    5150:	b810fcc0 	brid	-832		// 4e10
    5154:	10a40000 	addk	r5, r4, r0
    5158:	a658001f 	andi	r18, r24, 31
    515c:	13401800 	addk	r26, r0, r3
    5160:	be120014 	beqid	r18, 20		// 5174
    5164:	135a0000 	addk	r26, r26, r0
    5168:	3252ffff 	addik	r18, r18, -1
    516c:	be32fffc 	bneid	r18, -4		// 5168
    5170:	135ad000 	addk	r26, r26, r26
    5174:	a644001f 	andi	r18, r4, 31
    5178:	10609800 	addk	r3, r0, r19
    517c:	be120014 	beqid	r18, 20		// 5190
    5180:	10630000 	addk	r3, r3, r0
    5184:	3252ffff 	addik	r18, r18, -1
    5188:	be32fffc 	bneid	r18, -4		// 5184
    518c:	90630041 	srl	r3, r3
    5190:	835a1800 	or	r26, r26, r3
    5194:	a644001f 	andi	r18, r4, 31
    5198:	1380b000 	addk	r28, r0, r22
    519c:	be120014 	beqid	r18, 20		// 51b0
    51a0:	139c0000 	addk	r28, r28, r0
    51a4:	3252ffff 	addik	r18, r18, -1
    51a8:	be32fffc 	bneid	r18, -4		// 51a4
    51ac:	939c0041 	srl	r28, r28
    51b0:	1360d000 	addk	r27, r0, r26
    51b4:	937a0041 	srl	r27, r26
    51b8:	937b0041 	srl	r27, r27
    51bc:	937b0041 	srl	r27, r27
    51c0:	937b0041 	srl	r27, r27
    51c4:	937b0041 	srl	r27, r27
    51c8:	937b0041 	srl	r27, r27
    51cc:	937b0041 	srl	r27, r27
    51d0:	937b0041 	srl	r27, r27
    51d4:	937b0041 	srl	r27, r27
    51d8:	937b0041 	srl	r27, r27
    51dc:	937b0041 	srl	r27, r27
    51e0:	937b0041 	srl	r27, r27
    51e4:	937b0041 	srl	r27, r27
    51e8:	937b0041 	srl	r27, r27
    51ec:	937b0041 	srl	r27, r27
    51f0:	937b0041 	srl	r27, r27
    51f4:	10bc0000 	addk	r5, r28, r0
    51f8:	10db0000 	addk	r6, r27, r0
    51fc:	a644001f 	andi	r18, r4, 31
    5200:	1060b800 	addk	r3, r0, r23
    5204:	be120014 	beqid	r18, 20		// 5218
    5208:	10630000 	addk	r3, r3, r0
    520c:	3252ffff 	addik	r18, r18, -1
    5210:	be32fffc 	bneid	r18, -4		// 520c
    5214:	90630041 	srl	r3, r3
    5218:	a658001f 	andi	r18, r24, 31
    521c:	13a0b000 	addk	r29, r0, r22
    5220:	be120014 	beqid	r18, 20		// 5234
    5224:	13bd0000 	addk	r29, r29, r0
    5228:	3252ffff 	addik	r18, r18, -1
    522c:	be32fffc 	bneid	r18, -4		// 5228
    5230:	13bde800 	addk	r29, r29, r29
    5234:	b0000000 	imm	0
    5238:	b9f40ed4 	brlid	r15, 3796	// 610c <__umodsi3>
    523c:	83bd1800 	or	r29, r29, r3
    5240:	10bc0000 	addk	r5, r28, r0
    5244:	10db0000 	addk	r6, r27, r0
    5248:	b0000000 	imm	0
    524c:	a7faffff 	andi	r31, r26, -1
    5250:	b0000000 	imm	0
    5254:	b9f40e10 	brlid	r15, 3600	// 6064 <__udivsi3>
    5258:	12c30000 	addk	r22, r3, r0
    525c:	10a30000 	addk	r5, r3, r0
    5260:	10df0000 	addk	r6, r31, r0
    5264:	a658001f 	andi	r18, r24, 31
    5268:	13809800 	addk	r28, r0, r19
    526c:	be120014 	beqid	r18, 20		// 5280
    5270:	139c0000 	addk	r28, r28, r0
    5274:	3252ffff 	addik	r18, r18, -1
    5278:	be32fffc 	bneid	r18, -4		// 5274
    527c:	139ce000 	addk	r28, r28, r28
    5280:	b0000000 	imm	0
    5284:	b9f40d88 	brlid	r15, 3464	// 600c <__mulsi3>
    5288:	12630000 	addk	r19, r3, r0
    528c:	10b6b000 	addk	r5, r22, r22
    5290:	10a52800 	addk	r5, r5, r5
    5294:	10a52800 	addk	r5, r5, r5
    5298:	10a52800 	addk	r5, r5, r5
    529c:	10a52800 	addk	r5, r5, r5
    52a0:	10a52800 	addk	r5, r5, r5
    52a4:	10a52800 	addk	r5, r5, r5
    52a8:	10a52800 	addk	r5, r5, r5
    52ac:	10a52800 	addk	r5, r5, r5
    52b0:	10a52800 	addk	r5, r5, r5
    52b4:	10a52800 	addk	r5, r5, r5
    52b8:	10a52800 	addk	r5, r5, r5
    52bc:	10a52800 	addk	r5, r5, r5
    52c0:	10a52800 	addk	r5, r5, r5
    52c4:	10e30000 	addk	r7, r3, r0
    52c8:	10a52800 	addk	r5, r5, r5
    52cc:	10a52800 	addk	r5, r5, r5
    52d0:	1060e800 	addk	r3, r0, r29
    52d4:	907d0041 	srl	r3, r29
    52d8:	90630041 	srl	r3, r3
    52dc:	90630041 	srl	r3, r3
    52e0:	90630041 	srl	r3, r3
    52e4:	90630041 	srl	r3, r3
    52e8:	90630041 	srl	r3, r3
    52ec:	90630041 	srl	r3, r3
    52f0:	90630041 	srl	r3, r3
    52f4:	90630041 	srl	r3, r3
    52f8:	90630041 	srl	r3, r3
    52fc:	90630041 	srl	r3, r3
    5300:	90630041 	srl	r3, r3
    5304:	90630041 	srl	r3, r3
    5308:	90630041 	srl	r3, r3
    530c:	90630041 	srl	r3, r3
    5310:	90630041 	srl	r3, r3
    5314:	80a51800 	or	r5, r5, r3
    5318:	16472803 	cmpu	r18, r7, r5
    531c:	bcb20024 	bgei	r18, 36		// 5340
    5320:	10a5d000 	addk	r5, r5, r26
    5324:	165a2803 	cmpu	r18, r26, r5
    5328:	be520678 	bltid	r18, 1656		// 59a0
    532c:	3073ffff 	addik	r3, r19, -1
    5330:	16472803 	cmpu	r18, r7, r5
    5334:	bcb2066c 	bgei	r18, 1644		// 59a0
    5338:	3273fffe 	addik	r19, r19, -2
    533c:	10a5d000 	addk	r5, r5, r26
    5340:	16c72800 	rsubk	r22, r7, r5
    5344:	10b60000 	addk	r5, r22, r0
    5348:	b0000000 	imm	0
    534c:	a7bdffff 	andi	r29, r29, -1
    5350:	b0000000 	imm	0
    5354:	b9f40db8 	brlid	r15, 3512	// 610c <__umodsi3>
    5358:	10db0000 	addk	r6, r27, r0
    535c:	10b60000 	addk	r5, r22, r0
    5360:	10db0000 	addk	r6, r27, r0
    5364:	b0000000 	imm	0
    5368:	b9f40cfc 	brlid	r15, 3324	// 6064 <__udivsi3>
    536c:	13c30000 	addk	r30, r3, r0
    5370:	10a30000 	addk	r5, r3, r0
    5374:	10df0000 	addk	r6, r31, r0
    5378:	b0000000 	imm	0
    537c:	b9f40c90 	brlid	r15, 3216	// 600c <__mulsi3>
    5380:	12c30000 	addk	r22, r3, r0
    5384:	109ef000 	addk	r4, r30, r30
    5388:	10842000 	addk	r4, r4, r4
    538c:	10842000 	addk	r4, r4, r4
    5390:	10842000 	addk	r4, r4, r4
    5394:	10842000 	addk	r4, r4, r4
    5398:	10842000 	addk	r4, r4, r4
    539c:	10842000 	addk	r4, r4, r4
    53a0:	10842000 	addk	r4, r4, r4
    53a4:	10842000 	addk	r4, r4, r4
    53a8:	10842000 	addk	r4, r4, r4
    53ac:	10842000 	addk	r4, r4, r4
    53b0:	10842000 	addk	r4, r4, r4
    53b4:	10842000 	addk	r4, r4, r4
    53b8:	10842000 	addk	r4, r4, r4
    53bc:	10842000 	addk	r4, r4, r4
    53c0:	10842000 	addk	r4, r4, r4
    53c4:	8084e800 	or	r4, r4, r29
    53c8:	16432003 	cmpu	r18, r3, r4
    53cc:	beb20028 	bgeid	r18, 40		// 53f4
    53d0:	10e30000 	addk	r7, r3, r0
    53d4:	1084d000 	addk	r4, r4, r26
    53d8:	165a2003 	cmpu	r18, r26, r4
    53dc:	be5205b4 	bltid	r18, 1460		// 5990
    53e0:	3076ffff 	addik	r3, r22, -1
    53e4:	16472003 	cmpu	r18, r7, r4
    53e8:	bcb205a8 	bgei	r18, 1448		// 5990
    53ec:	32d6fffe 	addik	r22, r22, -2
    53f0:	1084d000 	addk	r4, r4, r26
    53f4:	10739800 	addk	r3, r19, r19
    53f8:	10631800 	addk	r3, r3, r3
    53fc:	10631800 	addk	r3, r3, r3
    5400:	10631800 	addk	r3, r3, r3
    5404:	10631800 	addk	r3, r3, r3
    5408:	10631800 	addk	r3, r3, r3
    540c:	10631800 	addk	r3, r3, r3
    5410:	10631800 	addk	r3, r3, r3
    5414:	10631800 	addk	r3, r3, r3
    5418:	10631800 	addk	r3, r3, r3
    541c:	10631800 	addk	r3, r3, r3
    5420:	10631800 	addk	r3, r3, r3
    5424:	10631800 	addk	r3, r3, r3
    5428:	10631800 	addk	r3, r3, r3
    542c:	10631800 	addk	r3, r3, r3
    5430:	10631800 	addk	r3, r3, r3
    5434:	82d61800 	or	r22, r22, r3
    5438:	b0000000 	imm	0
    543c:	a67cffff 	andi	r19, r28, -1
    5440:	b0000000 	imm	0
    5444:	a776ffff 	andi	r27, r22, -1
    5448:	10bb0000 	addk	r5, r27, r0
    544c:	10d30000 	addk	r6, r19, r0
    5450:	1340e000 	addk	r26, r0, r28
    5454:	935c0041 	srl	r26, r28
    5458:	935a0041 	srl	r26, r26
    545c:	935a0041 	srl	r26, r26
    5460:	935a0041 	srl	r26, r26
    5464:	935a0041 	srl	r26, r26
    5468:	935a0041 	srl	r26, r26
    546c:	935a0041 	srl	r26, r26
    5470:	935a0041 	srl	r26, r26
    5474:	935a0041 	srl	r26, r26
    5478:	935a0041 	srl	r26, r26
    547c:	935a0041 	srl	r26, r26
    5480:	935a0041 	srl	r26, r26
    5484:	935a0041 	srl	r26, r26
    5488:	935a0041 	srl	r26, r26
    548c:	935a0041 	srl	r26, r26
    5490:	935a0041 	srl	r26, r26
    5494:	b0000000 	imm	0
    5498:	b9f40b74 	brlid	r15, 2932	// 600c <__mulsi3>
    549c:	17872000 	rsubk	r28, r7, r4
    54a0:	10bb0000 	addk	r5, r27, r0
    54a4:	10da0000 	addk	r6, r26, r0
    54a8:	1360b000 	addk	r27, r0, r22
    54ac:	93760041 	srl	r27, r22
    54b0:	937b0041 	srl	r27, r27
    54b4:	937b0041 	srl	r27, r27
    54b8:	937b0041 	srl	r27, r27
    54bc:	937b0041 	srl	r27, r27
    54c0:	937b0041 	srl	r27, r27
    54c4:	937b0041 	srl	r27, r27
    54c8:	937b0041 	srl	r27, r27
    54cc:	937b0041 	srl	r27, r27
    54d0:	937b0041 	srl	r27, r27
    54d4:	937b0041 	srl	r27, r27
    54d8:	937b0041 	srl	r27, r27
    54dc:	937b0041 	srl	r27, r27
    54e0:	937b0041 	srl	r27, r27
    54e4:	937b0041 	srl	r27, r27
    54e8:	937b0041 	srl	r27, r27
    54ec:	b0000000 	imm	0
    54f0:	b9f40b1c 	brlid	r15, 2844	// 600c <__mulsi3>
    54f4:	13a30000 	addk	r29, r3, r0
    54f8:	10d30000 	addk	r6, r19, r0
    54fc:	10bb0000 	addk	r5, r27, r0
    5500:	b0000000 	imm	0
    5504:	b9f40b08 	brlid	r15, 2824	// 600c <__mulsi3>
    5508:	13c30000 	addk	r30, r3, r0
    550c:	10bb0000 	addk	r5, r27, r0
    5510:	10da0000 	addk	r6, r26, r0
    5514:	b0000000 	imm	0
    5518:	b9f40af4 	brlid	r15, 2804	// 600c <__mulsi3>
    551c:	12630000 	addk	r19, r3, r0
    5520:	10d3f000 	addk	r6, r19, r30
    5524:	1080e800 	addk	r4, r0, r29
    5528:	909d0041 	srl	r4, r29
    552c:	90840041 	srl	r4, r4
    5530:	90840041 	srl	r4, r4
    5534:	90840041 	srl	r4, r4
    5538:	90840041 	srl	r4, r4
    553c:	90840041 	srl	r4, r4
    5540:	90840041 	srl	r4, r4
    5544:	90840041 	srl	r4, r4
    5548:	90840041 	srl	r4, r4
    554c:	90840041 	srl	r4, r4
    5550:	90840041 	srl	r4, r4
    5554:	90840041 	srl	r4, r4
    5558:	90840041 	srl	r4, r4
    555c:	90840041 	srl	r4, r4
    5560:	90840041 	srl	r4, r4
    5564:	90840041 	srl	r4, r4
    5568:	10c62000 	addk	r6, r6, r4
    556c:	16533003 	cmpu	r18, r19, r6
    5570:	beb20010 	bgeid	r18, 16		// 5580
    5574:	10a30000 	addk	r5, r3, r0
    5578:	b0000001 	imm	1
    557c:	30a30000 	addik	r5, r3, 0
    5580:	10603000 	addk	r3, r0, r6
    5584:	90660041 	srl	r3, r6
    5588:	90630041 	srl	r3, r3
    558c:	90630041 	srl	r3, r3
    5590:	90630041 	srl	r3, r3
    5594:	90630041 	srl	r3, r3
    5598:	90630041 	srl	r3, r3
    559c:	90630041 	srl	r3, r3
    55a0:	90630041 	srl	r3, r3
    55a4:	90630041 	srl	r3, r3
    55a8:	90630041 	srl	r3, r3
    55ac:	90630041 	srl	r3, r3
    55b0:	90630041 	srl	r3, r3
    55b4:	90630041 	srl	r3, r3
    55b8:	90630041 	srl	r3, r3
    55bc:	90630041 	srl	r3, r3
    55c0:	90630041 	srl	r3, r3
    55c4:	10a51800 	addk	r5, r5, r3
    55c8:	1645e003 	cmpu	r18, r5, r28
    55cc:	be520378 	bltid	r18, 888		// 5944
    55d0:	3076ffff 	addik	r3, r22, -1
    55d4:	88bc2800 	xor	r5, r28, r5
    55d8:	14650000 	rsubk	r3, r5, r0
    55dc:	80a32800 	or	r5, r3, r5
    55e0:	be450084 	bltid	r5, 132		// 5664
    55e4:	10760000 	addk	r3, r22, r0
    55e8:	b0000000 	imm	0
    55ec:	a466ffff 	andi	r3, r6, -1
    55f0:	10631800 	addk	r3, r3, r3
    55f4:	10631800 	addk	r3, r3, r3
    55f8:	10631800 	addk	r3, r3, r3
    55fc:	10631800 	addk	r3, r3, r3
    5600:	10631800 	addk	r3, r3, r3
    5604:	10631800 	addk	r3, r3, r3
    5608:	10631800 	addk	r3, r3, r3
    560c:	10631800 	addk	r3, r3, r3
    5610:	10631800 	addk	r3, r3, r3
    5614:	10631800 	addk	r3, r3, r3
    5618:	10631800 	addk	r3, r3, r3
    561c:	10631800 	addk	r3, r3, r3
    5620:	10631800 	addk	r3, r3, r3
    5624:	10631800 	addk	r3, r3, r3
    5628:	10631800 	addk	r3, r3, r3
    562c:	10631800 	addk	r3, r3, r3
    5630:	b0000000 	imm	0
    5634:	a7bdffff 	andi	r29, r29, -1
    5638:	1063e800 	addk	r3, r3, r29
    563c:	a658001f 	andi	r18, r24, 31
    5640:	1080b800 	addk	r4, r0, r23
    5644:	be120014 	beqid	r18, 20		// 5658
    5648:	10840000 	addk	r4, r4, r0
    564c:	3252ffff 	addik	r18, r18, -1
    5650:	be32fffc 	bneid	r18, -4		// 564c
    5654:	10842000 	addk	r4, r4, r4
    5658:	16432003 	cmpu	r18, r3, r4
    565c:	bc5202e4 	blti	r18, 740		// 5940
    5660:	10760000 	addk	r3, r22, r0
    5664:	b810f708 	brid	-2296		// 4d6c
    5668:	13000000 	addk	r24, r0, r0
    566c:	a647001f 	andi	r18, r7, 31
    5670:	1360b000 	addk	r27, r0, r22
    5674:	be120014 	beqid	r18, 20		// 5688
    5678:	137b0000 	addk	r27, r27, r0
    567c:	3252ffff 	addik	r18, r18, -1
    5680:	be32fffc 	bneid	r18, -4		// 567c
    5684:	937b0041 	srl	r27, r27
    5688:	a643001f 	andi	r18, r3, 31
    568c:	10809800 	addk	r4, r0, r19
    5690:	be120014 	beqid	r18, 20		// 56a4
    5694:	10840000 	addk	r4, r4, r0
    5698:	3252ffff 	addik	r18, r18, -1
    569c:	be32fffc 	bneid	r18, -4		// 5698
    56a0:	10842000 	addk	r4, r4, r4
    56a4:	10bb0000 	addk	r5, r27, r0
    56a8:	13402000 	addk	r26, r0, r4
    56ac:	93440041 	srl	r26, r4
    56b0:	935a0041 	srl	r26, r26
    56b4:	935a0041 	srl	r26, r26
    56b8:	935a0041 	srl	r26, r26
    56bc:	935a0041 	srl	r26, r26
    56c0:	935a0041 	srl	r26, r26
    56c4:	935a0041 	srl	r26, r26
    56c8:	935a0041 	srl	r26, r26
    56cc:	935a0041 	srl	r26, r26
    56d0:	935a0041 	srl	r26, r26
    56d4:	935a0041 	srl	r26, r26
    56d8:	935a0041 	srl	r26, r26
    56dc:	935a0041 	srl	r26, r26
    56e0:	935a0041 	srl	r26, r26
    56e4:	935a0041 	srl	r26, r26
    56e8:	935a0041 	srl	r26, r26
    56ec:	10da0000 	addk	r6, r26, r0
    56f0:	12640000 	addk	r19, r4, r0
    56f4:	a647001f 	andi	r18, r7, 31
    56f8:	1080b800 	addk	r4, r0, r23
    56fc:	be120014 	beqid	r18, 20		// 5710
    5700:	10840000 	addk	r4, r4, r0
    5704:	3252ffff 	addik	r18, r18, -1
    5708:	be32fffc 	bneid	r18, -4		// 5704
    570c:	90840041 	srl	r4, r4
    5710:	a643001f 	andi	r18, r3, 31
    5714:	10e0b800 	addk	r7, r0, r23
    5718:	be120014 	beqid	r18, 20		// 572c
    571c:	10e70000 	addk	r7, r7, r0
    5720:	3252ffff 	addik	r18, r18, -1
    5724:	be32fffc 	bneid	r18, -4		// 5720
    5728:	10e73800 	addk	r7, r7, r7
    572c:	a643001f 	andi	r18, r3, 31
    5730:	1300b000 	addk	r24, r0, r22
    5734:	be120014 	beqid	r18, 20		// 5748
    5738:	13180000 	addk	r24, r24, r0
    573c:	3252ffff 	addik	r18, r18, -1
    5740:	be32fffc 	bneid	r18, -4		// 573c
    5744:	1318c000 	addk	r24, r24, r24
    5748:	f8e1001c 	swi	r7, r1, 28
    574c:	83182000 	or	r24, r24, r4
    5750:	b0000000 	imm	0
    5754:	b9f409b8 	brlid	r15, 2488	// 610c <__umodsi3>
    5758:	12e70000 	addk	r23, r7, r0
    575c:	10bb0000 	addk	r5, r27, r0
    5760:	10da0000 	addk	r6, r26, r0
    5764:	b0000000 	imm	0
    5768:	a773ffff 	andi	r27, r19, -1
    576c:	b0000000 	imm	0
    5770:	b9f408f4 	brlid	r15, 2292	// 6064 <__udivsi3>
    5774:	12c30000 	addk	r22, r3, r0
    5778:	10a30000 	addk	r5, r3, r0
    577c:	10db0000 	addk	r6, r27, r0
    5780:	b0000000 	imm	0
    5784:	b9f40888 	brlid	r15, 2184	// 600c <__mulsi3>
    5788:	13830000 	addk	r28, r3, r0
    578c:	10b6b000 	addk	r5, r22, r22
    5790:	10a52800 	addk	r5, r5, r5
    5794:	10a52800 	addk	r5, r5, r5
    5798:	10a52800 	addk	r5, r5, r5
    579c:	10a52800 	addk	r5, r5, r5
    57a0:	10a52800 	addk	r5, r5, r5
    57a4:	10a52800 	addk	r5, r5, r5
    57a8:	10a52800 	addk	r5, r5, r5
    57ac:	10a52800 	addk	r5, r5, r5
    57b0:	10a52800 	addk	r5, r5, r5
    57b4:	10a52800 	addk	r5, r5, r5
    57b8:	10a52800 	addk	r5, r5, r5
    57bc:	10a52800 	addk	r5, r5, r5
    57c0:	10a52800 	addk	r5, r5, r5
    57c4:	10c30000 	addk	r6, r3, r0
    57c8:	10a52800 	addk	r5, r5, r5
    57cc:	10a52800 	addk	r5, r5, r5
    57d0:	1060c000 	addk	r3, r0, r24
    57d4:	90780041 	srl	r3, r24
    57d8:	90630041 	srl	r3, r3
    57dc:	90630041 	srl	r3, r3
    57e0:	90630041 	srl	r3, r3
    57e4:	90630041 	srl	r3, r3
    57e8:	90630041 	srl	r3, r3
    57ec:	90630041 	srl	r3, r3
    57f0:	90630041 	srl	r3, r3
    57f4:	90630041 	srl	r3, r3
    57f8:	90630041 	srl	r3, r3
    57fc:	90630041 	srl	r3, r3
    5800:	90630041 	srl	r3, r3
    5804:	90630041 	srl	r3, r3
    5808:	90630041 	srl	r3, r3
    580c:	90630041 	srl	r3, r3
    5810:	90630041 	srl	r3, r3
    5814:	80a51800 	or	r5, r5, r3
    5818:	16462803 	cmpu	r18, r6, r5
    581c:	bcb20024 	bgei	r18, 36		// 5840
    5820:	10a59800 	addk	r5, r5, r19
    5824:	16532803 	cmpu	r18, r19, r5
    5828:	be520170 	bltid	r18, 368		// 5998
    582c:	307cffff 	addik	r3, r28, -1
    5830:	16462803 	cmpu	r18, r6, r5
    5834:	bcb20164 	bgei	r18, 356		// 5998
    5838:	339cfffe 	addik	r28, r28, -2
    583c:	10a59800 	addk	r5, r5, r19
    5840:	16c62800 	rsubk	r22, r6, r5
    5844:	10b60000 	addk	r5, r22, r0
    5848:	b0000000 	imm	0
    584c:	a718ffff 	andi	r24, r24, -1
    5850:	b0000000 	imm	0
    5854:	b9f408b8 	brlid	r15, 2232	// 610c <__umodsi3>
    5858:	10da0000 	addk	r6, r26, r0
    585c:	10b60000 	addk	r5, r22, r0
    5860:	10da0000 	addk	r6, r26, r0
    5864:	b0000000 	imm	0
    5868:	b9f407fc 	brlid	r15, 2044	// 6064 <__udivsi3>
    586c:	13c30000 	addk	r30, r3, r0
    5870:	10a30000 	addk	r5, r3, r0
    5874:	10db0000 	addk	r6, r27, r0
    5878:	b0000000 	imm	0
    587c:	b9f40790 	brlid	r15, 1936	// 600c <__mulsi3>
    5880:	13a30000 	addk	r29, r3, r0
    5884:	109ef000 	addk	r4, r30, r30
    5888:	10842000 	addk	r4, r4, r4
    588c:	10842000 	addk	r4, r4, r4
    5890:	10842000 	addk	r4, r4, r4
    5894:	10842000 	addk	r4, r4, r4
    5898:	10842000 	addk	r4, r4, r4
    589c:	10842000 	addk	r4, r4, r4
    58a0:	10842000 	addk	r4, r4, r4
    58a4:	10842000 	addk	r4, r4, r4
    58a8:	10842000 	addk	r4, r4, r4
    58ac:	10842000 	addk	r4, r4, r4
    58b0:	10842000 	addk	r4, r4, r4
    58b4:	10842000 	addk	r4, r4, r4
    58b8:	10842000 	addk	r4, r4, r4
    58bc:	10842000 	addk	r4, r4, r4
    58c0:	10842000 	addk	r4, r4, r4
    58c4:	8084c000 	or	r4, r4, r24
    58c8:	16432003 	cmpu	r18, r3, r4
    58cc:	beb20028 	bgeid	r18, 40		// 58f4
    58d0:	12c30000 	addk	r22, r3, r0
    58d4:	10849800 	addk	r4, r4, r19
    58d8:	16532003 	cmpu	r18, r19, r4
    58dc:	be5200ac 	bltid	r18, 172		// 5988
    58e0:	307dffff 	addik	r3, r29, -1
    58e4:	16562003 	cmpu	r18, r22, r4
    58e8:	bcb200a0 	bgei	r18, 160		// 5988
    58ec:	33bdfffe 	addik	r29, r29, -2
    58f0:	10849800 	addk	r4, r4, r19
    58f4:	131ce000 	addk	r24, r28, r28
    58f8:	1318c000 	addk	r24, r24, r24
    58fc:	1318c000 	addk	r24, r24, r24
    5900:	1318c000 	addk	r24, r24, r24
    5904:	1318c000 	addk	r24, r24, r24
    5908:	1318c000 	addk	r24, r24, r24
    590c:	1318c000 	addk	r24, r24, r24
    5910:	1318c000 	addk	r24, r24, r24
    5914:	1318c000 	addk	r24, r24, r24
    5918:	1318c000 	addk	r24, r24, r24
    591c:	1318c000 	addk	r24, r24, r24
    5920:	1318c000 	addk	r24, r24, r24
    5924:	1318c000 	addk	r24, r24, r24
    5928:	1318c000 	addk	r24, r24, r24
    592c:	1318c000 	addk	r24, r24, r24
    5930:	1318c000 	addk	r24, r24, r24
    5934:	16d62000 	rsubk	r22, r22, r4
    5938:	b810f5f8 	brid	-2568		// 4f30
    593c:	831dc000 	or	r24, r29, r24
    5940:	3076ffff 	addik	r3, r22, -1
    5944:	b810f428 	brid	-3032		// 4d6c
    5948:	13000000 	addk	r24, r0, r0
    594c:	30800008 	addik	r4, r0, 8	// 8 <_vector_sw_exception>
    5950:	b810f4c0 	brid	-2880		// 4e10
    5954:	10a40000 	addk	r5, r4, r0
    5958:	30600008 	addik	r3, r0, 8	// 8 <_vector_sw_exception>
    595c:	b810f10c 	brid	-3828		// 4a68
    5960:	10830000 	addk	r4, r3, r0
    5964:	b810f4ac 	brid	-2900		// 4e10
    5968:	10a40000 	addk	r5, r4, r0
    596c:	b810f53c 	brid	-2756		// 4ea8
    5970:	10830000 	addk	r4, r3, r0
    5974:	b810f0f4 	brid	-3852		// 4a68
    5978:	10830000 	addk	r4, r3, r0
    597c:	30600008 	addik	r3, r0, 8	// 8 <_vector_sw_exception>
    5980:	b810f528 	brid	-2776		// 4ea8
    5984:	10830000 	addk	r4, r3, r0
    5988:	b810ff6c 	brid	-148		// 58f4
    598c:	13a30000 	addk	r29, r3, r0
    5990:	b810fa64 	brid	-1436		// 53f4
    5994:	12c30000 	addk	r22, r3, r0
    5998:	b810fea8 	brid	-344		// 5840
    599c:	13830000 	addk	r28, r3, r0
    59a0:	b810f9a0 	brid	-1632		// 5340
    59a4:	12630000 	addk	r19, r3, r0
    59a8:	b810f2b4 	brid	-3404		// 4c5c
    59ac:	10849800 	addk	r4, r4, r19
    59b0:	b810f670 	brid	-2448		// 5020
    59b4:	10849800 	addk	r4, r4, r19

000059b8 <__divdf3>:
    59b8:	11450000 	addk	r10, r5, r0
    59bc:	11660000 	addk	r11, r6, r0
    59c0:	11280000 	addk	r9, r8, r0
    59c4:	11070000 	addk	r8, r7, r0
    59c8:	3021ff8c 	addik	r1, r1, -116
    59cc:	30c10040 	addik	r6, r1, 64
    59d0:	30a10024 	addik	r5, r1, 36
    59d4:	f9e10000 	swi	r15, r1, 0
    59d8:	f9410024 	swi	r10, r1, 36
    59dc:	f9610028 	swi	r11, r1, 40
    59e0:	f901001c 	swi	r8, r1, 28
    59e4:	f9210020 	swi	r9, r1, 32
    59e8:	fa61005c 	swi	r19, r1, 92
    59ec:	fac10060 	swi	r22, r1, 96
    59f0:	fae10064 	swi	r23, r1, 100
    59f4:	fb010068 	swi	r24, r1, 104
    59f8:	fb41006c 	swi	r26, r1, 108
    59fc:	b0000000 	imm	0
    5a00:	b9f40d14 	brlid	r15, 3348	// 6714 <__unpack_d>
    5a04:	fb610070 	swi	r27, r1, 112
    5a08:	30c1002c 	addik	r6, r1, 44
    5a0c:	b0000000 	imm	0
    5a10:	b9f40d04 	brlid	r15, 3332	// 6714 <__unpack_d>
    5a14:	30a1001c 	addik	r5, r1, 28
    5a18:	e8610040 	lwi	r3, r1, 64
    5a1c:	30c00001 	addik	r6, r0, 1
    5a20:	16433003 	cmpu	r18, r3, r6
    5a24:	beb20238 	bgeid	r18, 568		// 5c5c
    5a28:	30a10040 	addik	r5, r1, 64
    5a2c:	e881002c 	lwi	r4, r1, 44
    5a30:	16443003 	cmpu	r18, r4, r6
    5a34:	beb20228 	bgeid	r18, 552		// 5c5c
    5a38:	30a1002c 	addik	r5, r1, 44
    5a3c:	e8e10044 	lwi	r7, r1, 68
    5a40:	e8c10030 	lwi	r6, r1, 48
    5a44:	a8a30004 	xori	r5, r3, 4
    5a48:	88c73000 	xor	r6, r7, r6
    5a4c:	be050258 	beqid	r5, 600		// 5ca4
    5a50:	f8c10044 	swi	r6, r1, 68
    5a54:	a8a30002 	xori	r5, r3, 2
    5a58:	be050250 	beqid	r5, 592		// 5ca8
    5a5c:	88632000 	xor	r3, r3, r4
    5a60:	a8640004 	xori	r3, r4, 4
    5a64:	be0302b4 	beqid	r3, 692		// 5d18
    5a68:	a8840002 	xori	r4, r4, 2
    5a6c:	be04029c 	beqid	r4, 668		// 5d08
    5a70:	e8c10048 	lwi	r6, r1, 72
    5a74:	e8610034 	lwi	r3, r1, 52
    5a78:	e881004c 	lwi	r4, r1, 76
    5a7c:	e8a10050 	lwi	r5, r1, 80
    5a80:	e9010038 	lwi	r8, r1, 56
    5a84:	e921003c 	lwi	r9, r1, 60
    5a88:	14633000 	rsubk	r3, r3, r6
    5a8c:	16492803 	cmpu	r18, r9, r5
    5a90:	beb201fc 	bgeid	r18, 508		// 5c8c
    5a94:	f8610048 	swi	r3, r1, 72
    5a98:	11442000 	addk	r10, r4, r4
    5a9c:	10e02000 	addk	r7, r0, r4
    5aa0:	90e40041 	srl	r7, r4
    5aa4:	90e70041 	srl	r7, r7
    5aa8:	90e70041 	srl	r7, r7
    5aac:	90e70041 	srl	r7, r7
    5ab0:	90e70041 	srl	r7, r7
    5ab4:	90e70041 	srl	r7, r7
    5ab8:	90e70041 	srl	r7, r7
    5abc:	90e70041 	srl	r7, r7
    5ac0:	90e70041 	srl	r7, r7
    5ac4:	90e70041 	srl	r7, r7
    5ac8:	90e70041 	srl	r7, r7
    5acc:	90e70041 	srl	r7, r7
    5ad0:	90e70041 	srl	r7, r7
    5ad4:	90e70041 	srl	r7, r7
    5ad8:	90e70041 	srl	r7, r7
    5adc:	90e70041 	srl	r7, r7
    5ae0:	90e70041 	srl	r7, r7
    5ae4:	90e70041 	srl	r7, r7
    5ae8:	90e70041 	srl	r7, r7
    5aec:	90e70041 	srl	r7, r7
    5af0:	90e70041 	srl	r7, r7
    5af4:	90e70041 	srl	r7, r7
    5af8:	90e70041 	srl	r7, r7
    5afc:	90e70041 	srl	r7, r7
    5b00:	90e70041 	srl	r7, r7
    5b04:	90e70041 	srl	r7, r7
    5b08:	90e70041 	srl	r7, r7
    5b0c:	90e70041 	srl	r7, r7
    5b10:	90e70041 	srl	r7, r7
    5b14:	90e70041 	srl	r7, r7
    5b18:	90e70041 	srl	r7, r7
    5b1c:	108a0000 	addk	r4, r10, r0
    5b20:	10c52800 	addk	r6, r5, r5
    5b24:	3063ffff 	addik	r3, r3, -1
    5b28:	f8610048 	swi	r3, r1, 72
    5b2c:	80a73000 	or	r5, r7, r6
    5b30:	3060003d 	addik	r3, r0, 61
    5b34:	b0001000 	imm	4096
    5b38:	30e00000 	addik	r7, r0, 0
    5b3c:	30c00000 	addik	r6, r0, 0
    5b40:	31600000 	addik	r11, r0, 0
    5b44:	31400000 	addik	r10, r0, 0
    5b48:	92e60041 	srl	r23, r6
    5b4c:	92c70041 	srl	r22, r7
    5b50:	93070021 	src	r24, r7
    5b54:	93180021 	src	r24, r24
    5b58:	b0008000 	imm	-32768
    5b5c:	a7180000 	andi	r24, r24, 0
    5b60:	3063ffff 	addik	r3, r3, -1
    5b64:	16492803 	cmpu	r18, r9, r5
    5b68:	be520034 	bltid	r18, 52		// 5b9c
    5b6c:	89892800 	xor	r12, r9, r5
    5b70:	bc2c000c 	bnei	r12, 12		// 5b7c
    5b74:	16482003 	cmpu	r18, r8, r4
    5b78:	bc520024 	blti	r18, 36		// 5b9c
    5b7c:	07482000 	rsub	r26, r8, r4
    5b80:	0f692800 	rsubc	r27, r9, r5
    5b84:	109a0000 	addk	r4, r26, r0
    5b88:	10bb0000 	addk	r5, r27, r0
    5b8c:	fb410054 	swi	r26, r1, 84
    5b90:	fb610058 	swi	r27, r1, 88
    5b94:	814a3000 	or	r10, r10, r6
    5b98:	816b3800 	or	r11, r11, r7
    5b9c:	10c42000 	addk	r6, r4, r4
    5ba0:	11852800 	addk	r12, r5, r5
    5ba4:	12602000 	addk	r19, r0, r4
    5ba8:	92640041 	srl	r19, r4
    5bac:	92730041 	srl	r19, r19
    5bb0:	92730041 	srl	r19, r19
    5bb4:	92730041 	srl	r19, r19
    5bb8:	92730041 	srl	r19, r19
    5bbc:	92730041 	srl	r19, r19
    5bc0:	92730041 	srl	r19, r19
    5bc4:	92730041 	srl	r19, r19
    5bc8:	92730041 	srl	r19, r19
    5bcc:	92730041 	srl	r19, r19
    5bd0:	92730041 	srl	r19, r19
    5bd4:	92730041 	srl	r19, r19
    5bd8:	92730041 	srl	r19, r19
    5bdc:	92730041 	srl	r19, r19
    5be0:	92730041 	srl	r19, r19
    5be4:	92730041 	srl	r19, r19
    5be8:	92730041 	srl	r19, r19
    5bec:	92730041 	srl	r19, r19
    5bf0:	92730041 	srl	r19, r19
    5bf4:	92730041 	srl	r19, r19
    5bf8:	92730041 	srl	r19, r19
    5bfc:	92730041 	srl	r19, r19
    5c00:	92730041 	srl	r19, r19
    5c04:	92730041 	srl	r19, r19
    5c08:	92730041 	srl	r19, r19
    5c0c:	92730041 	srl	r19, r19
    5c10:	92730041 	srl	r19, r19
    5c14:	92730041 	srl	r19, r19
    5c18:	92730041 	srl	r19, r19
    5c1c:	92730041 	srl	r19, r19
    5c20:	92730041 	srl	r19, r19
    5c24:	10f60000 	addk	r7, r22, r0
    5c28:	10860000 	addk	r4, r6, r0
    5c2c:	80b36000 	or	r5, r19, r12
    5c30:	be23ff18 	bneid	r3, -232		// 5b48
    5c34:	80d8b800 	or	r6, r24, r23
    5c38:	30e00000 	addik	r7, r0, 0
    5c3c:	30c000ff 	addik	r6, r0, 255
    5c40:	84ca3000 	and	r6, r10, r6
    5c44:	a8660080 	xori	r3, r6, 128
    5c48:	be030074 	beqid	r3, 116		// 5cbc
    5c4c:	84eb3800 	and	r7, r11, r7
    5c50:	30a10040 	addik	r5, r1, 64
    5c54:	f941004c 	swi	r10, r1, 76
    5c58:	f9610050 	swi	r11, r1, 80
    5c5c:	b0000000 	imm	0
    5c60:	b9f405ec 	brlid	r15, 1516	// 624c <__pack_d>
    5c64:	80000000 	or	r0, r0, r0
    5c68:	e9e10000 	lwi	r15, r1, 0
    5c6c:	ea61005c 	lwi	r19, r1, 92
    5c70:	eac10060 	lwi	r22, r1, 96
    5c74:	eae10064 	lwi	r23, r1, 100
    5c78:	eb010068 	lwi	r24, r1, 104
    5c7c:	eb41006c 	lwi	r26, r1, 108
    5c80:	eb610070 	lwi	r27, r1, 112
    5c84:	b60f0008 	rtsd	r15, 8
    5c88:	30210074 	addik	r1, r1, 116
    5c8c:	88c92800 	xor	r6, r9, r5
    5c90:	bc26fea0 	bnei	r6, -352		// 5b30
    5c94:	16482003 	cmpu	r18, r8, r4
    5c98:	beb2fe98 	bgeid	r18, -360		// 5b30
    5c9c:	11442000 	addk	r10, r4, r4
    5ca0:	b800fdfc 	bri	-516		// 5a9c
    5ca4:	88632000 	xor	r3, r3, r4
    5ca8:	b0000000 	imm	0
    5cac:	30a07308 	addik	r5, r0, 29448	// 7308 <__thenan_df>
    5cb0:	bc03ffac 	beqi	r3, -84		// 5c5c
    5cb4:	b810ffa8 	brid	-88		// 5c5c
    5cb8:	30a10040 	addik	r5, r1, 64
    5cbc:	bc27ff94 	bnei	r7, -108		// 5c50
    5cc0:	30e00000 	addik	r7, r0, 0
    5cc4:	30c00100 	addik	r6, r0, 256
    5cc8:	84ca3000 	and	r6, r10, r6
    5ccc:	84eb3800 	and	r7, r11, r7
    5cd0:	80c63800 	or	r6, r6, r7
    5cd4:	be26ff7c 	bneid	r6, -132		// 5c50
    5cd8:	80842800 	or	r4, r4, r5
    5cdc:	be04ff78 	beqid	r4, -136		// 5c54
    5ce0:	30a10040 	addik	r5, r1, 64
    5ce4:	30a00000 	addik	r5, r0, 0
    5ce8:	30800080 	addik	r4, r0, 128	// 80 <_exit>
    5cec:	014a2000 	add	r10, r10, r4
    5cf0:	096b2800 	addc	r11, r11, r5
    5cf4:	30a0ffff 	addik	r5, r0, -1
    5cf8:	3080ff00 	addik	r4, r0, -256
    5cfc:	854a2000 	and	r10, r10, r4
    5d00:	b810ff50 	brid	-176		// 5c50
    5d04:	856b2800 	and	r11, r11, r5
    5d08:	30a00004 	addik	r5, r0, 4
    5d0c:	f8a10040 	swi	r5, r1, 64
    5d10:	b810ff4c 	brid	-180		// 5c5c
    5d14:	30a10040 	addik	r5, r1, 64
    5d18:	30a00000 	addik	r5, r0, 0
    5d1c:	30800000 	addik	r4, r0, 0
    5d20:	f881004c 	swi	r4, r1, 76
    5d24:	f8a10050 	swi	r5, r1, 80
    5d28:	f8610048 	swi	r3, r1, 72
    5d2c:	b810ff30 	brid	-208		// 5c5c
    5d30:	30a10040 	addik	r5, r1, 64

00005d34 <__floatsidf>:
    5d34:	3021ffcc 	addik	r1, r1, -52
    5d38:	30600003 	addik	r3, r0, 3
    5d3c:	f861001c 	swi	r3, r1, 28
    5d40:	f9e10000 	swi	r15, r1, 0
    5d44:	10602800 	addk	r3, r0, r5
    5d48:	90650041 	srl	r3, r5
    5d4c:	90630041 	srl	r3, r3
    5d50:	90630041 	srl	r3, r3
    5d54:	90630041 	srl	r3, r3
    5d58:	90630041 	srl	r3, r3
    5d5c:	90630041 	srl	r3, r3
    5d60:	90630041 	srl	r3, r3
    5d64:	90630041 	srl	r3, r3
    5d68:	90630041 	srl	r3, r3
    5d6c:	90630041 	srl	r3, r3
    5d70:	90630041 	srl	r3, r3
    5d74:	90630041 	srl	r3, r3
    5d78:	90630041 	srl	r3, r3
    5d7c:	90630041 	srl	r3, r3
    5d80:	90630041 	srl	r3, r3
    5d84:	90630041 	srl	r3, r3
    5d88:	90630041 	srl	r3, r3
    5d8c:	90630041 	srl	r3, r3
    5d90:	90630041 	srl	r3, r3
    5d94:	90630041 	srl	r3, r3
    5d98:	90630041 	srl	r3, r3
    5d9c:	90630041 	srl	r3, r3
    5da0:	90630041 	srl	r3, r3
    5da4:	90630041 	srl	r3, r3
    5da8:	90630041 	srl	r3, r3
    5dac:	90630041 	srl	r3, r3
    5db0:	90630041 	srl	r3, r3
    5db4:	90630041 	srl	r3, r3
    5db8:	90630041 	srl	r3, r3
    5dbc:	90630041 	srl	r3, r3
    5dc0:	90630041 	srl	r3, r3
    5dc4:	fa610030 	swi	r19, r1, 48
    5dc8:	be25003c 	bneid	r5, 60		// 5e04
    5dcc:	f8610020 	swi	r3, r1, 32
    5dd0:	30800002 	addik	r4, r0, 2
    5dd4:	f881001c 	swi	r4, r1, 28
    5dd8:	b0000000 	imm	0
    5ddc:	b9f40470 	brlid	r15, 1136	// 624c <__pack_d>
    5de0:	30a1001c 	addik	r5, r1, 28
    5de4:	10a40000 	addk	r5, r4, r0
    5de8:	10830000 	addk	r4, r3, r0
    5dec:	10640000 	addk	r3, r4, r0
    5df0:	e9e10000 	lwi	r15, r1, 0
    5df4:	10850000 	addk	r4, r5, r0
    5df8:	ea610030 	lwi	r19, r1, 48
    5dfc:	b60f0008 	rtsd	r15, 8
    5e00:	30210034 	addik	r1, r1, 52
    5e04:	3080003c 	addik	r4, r0, 60
    5e08:	f8810024 	swi	r4, r1, 36
    5e0c:	be030024 	beqid	r3, 36		// 5e30
    5e10:	12650000 	addk	r19, r5, r0
    5e14:	b0008000 	imm	-32768
    5e18:	30650000 	addik	r3, r5, 0
    5e1c:	30800000 	addik	r4, r0, 0
    5e20:	b000c1e0 	imm	-15904
    5e24:	30a00000 	addik	r5, r0, 0
    5e28:	be03ffc4 	beqid	r3, -60		// 5dec
    5e2c:	16730000 	rsubk	r19, r19, r0
    5e30:	10b30000 	addk	r5, r19, r0
    5e34:	fa610028 	swi	r19, r1, 40
    5e38:	b0000000 	imm	0
    5e3c:	b9f4038c 	brlid	r15, 908	// 61c8 <__clzsi2>
    5e40:	f801002c 	swi	r0, r1, 44
    5e44:	3083001d 	addik	r4, r3, 29
    5e48:	be64ff90 	bleid	r4, -112		// 5dd8
    5e4c:	a4a40020 	andi	r5, r4, 32
    5e50:	be05003c 	beqid	r5, 60		// 5e8c
    5e54:	90f30041 	srl	r7, r19
    5e58:	a644001f 	andi	r18, r4, 31
    5e5c:	10a09800 	addk	r5, r0, r19
    5e60:	be120014 	beqid	r18, 20		// 5e74
    5e64:	10a50000 	addk	r5, r5, r0
    5e68:	3252ffff 	addik	r18, r18, -1
    5e6c:	be32fffc 	bneid	r18, -4		// 5e68
    5e70:	10a52800 	addk	r5, r5, r5
    5e74:	f8010028 	swi	r0, r1, 40
    5e78:	f8a1002c 	swi	r5, r1, 44
    5e7c:	3080001f 	addik	r4, r0, 31
    5e80:	14632000 	rsubk	r3, r3, r4
    5e84:	b810ff54 	brid	-172		// 5dd8
    5e88:	f8610024 	swi	r3, r1, 36
    5e8c:	a8a4ffff 	xori	r5, r4, -1
    5e90:	a645001f 	andi	r18, r5, 31
    5e94:	10c03800 	addk	r6, r0, r7
    5e98:	be120014 	beqid	r18, 20		// 5eac
    5e9c:	10c60000 	addk	r6, r6, r0
    5ea0:	3252ffff 	addik	r18, r18, -1
    5ea4:	be32fffc 	bneid	r18, -4		// 5ea0
    5ea8:	90c60041 	srl	r6, r6
    5eac:	a644001f 	andi	r18, r4, 31
    5eb0:	10a09800 	addk	r5, r0, r19
    5eb4:	be120014 	beqid	r18, 20		// 5ec8
    5eb8:	10a50000 	addk	r5, r5, r0
    5ebc:	3252ffff 	addik	r18, r18, -1
    5ec0:	be32fffc 	bneid	r18, -4		// 5ebc
    5ec4:	10a52800 	addk	r5, r5, r5
    5ec8:	f8c1002c 	swi	r6, r1, 44
    5ecc:	b810ffb0 	brid	-80		// 5e7c
    5ed0:	f8a10028 	swi	r5, r1, 40

00005ed4 <__divsi3>:
    5ed4:	3021fff0 	addik	r1, r1, -16
    5ed8:	fb810000 	swi	r28, r1, 0
    5edc:	fba10004 	swi	r29, r1, 4
    5ee0:	fbc10008 	swi	r30, r1, 8
    5ee4:	fbe1000c 	swi	r31, r1, 12
    5ee8:	bc06006c 	beqi	r6, 108		// 5f54
    5eec:	bc050068 	beqi	r5, 104		// 5f54
    5ef0:	bea5000c 	bgeid	r5, 12		// 5efc
    5ef4:	8b853000 	xor	r28, r5, r6
    5ef8:	24a50000 	rsubi	r5, r5, 0
    5efc:	bca60008 	bgei	r6, 8		// 5f04
    5f00:	24c60000 	rsubi	r6, r6, 0
    5f04:	33c00000 	addik	r30, r0, 0
    5f08:	30600000 	addik	r3, r0, 0
    5f0c:	33a00020 	addik	r29, r0, 32	// 20 <_vector_hw_exception>
    5f10:	bc450010 	blti	r5, 16		// 5f20
    5f14:	00a52800 	add	r5, r5, r5
    5f18:	be85fffc 	bgtid	r5, -4		// 5f14
    5f1c:	33bdffff 	addik	r29, r29, -1
    5f20:	00a52800 	add	r5, r5, r5
    5f24:	0bdef000 	addc	r30, r30, r30
    5f28:	07e6f000 	rsub	r31, r6, r30
    5f2c:	bc5f000c 	blti	r31, 12		// 5f38
    5f30:	83c0f800 	or	r30, r0, r31
    5f34:	30630001 	addik	r3, r3, 1
    5f38:	33bdffff 	addik	r29, r29, -1
    5f3c:	bc1d000c 	beqi	r29, 12		// 5f48
    5f40:	00631800 	add	r3, r3, r3
    5f44:	b800ffdc 	bri	-36		// 5f20
    5f48:	bcbc0010 	bgei	r28, 16		// 5f58
    5f4c:	b810000c 	brid	12		// 5f58
    5f50:	24630000 	rsubi	r3, r3, 0
    5f54:	80600000 	or	r3, r0, r0
    5f58:	eb810000 	lwi	r28, r1, 0
    5f5c:	eba10004 	lwi	r29, r1, 4
    5f60:	ebc10008 	lwi	r30, r1, 8
    5f64:	ebe1000c 	lwi	r31, r1, 12
    5f68:	b60f0008 	rtsd	r15, 8
    5f6c:	30210010 	addik	r1, r1, 16

00005f70 <__modsi3>:
    5f70:	3021fff0 	addik	r1, r1, -16
    5f74:	fb810000 	swi	r28, r1, 0
    5f78:	fba10004 	swi	r29, r1, 4
    5f7c:	fbc10008 	swi	r30, r1, 8
    5f80:	fbe1000c 	swi	r31, r1, 12
    5f84:	bc06006c 	beqi	r6, 108		// 5ff0
    5f88:	bc050068 	beqi	r5, 104		// 5ff0
    5f8c:	bea5000c 	bgeid	r5, 12		// 5f98
    5f90:	03850000 	add	r28, r5, r0
    5f94:	24a50000 	rsubi	r5, r5, 0
    5f98:	bca60008 	bgei	r6, 8		// 5fa0
    5f9c:	24c60000 	rsubi	r6, r6, 0
    5fa0:	30600000 	addik	r3, r0, 0
    5fa4:	33c00000 	addik	r30, r0, 0
    5fa8:	be450014 	bltid	r5, 20		// 5fbc
    5fac:	33a00020 	addik	r29, r0, 32	// 20 <_vector_hw_exception>
    5fb0:	00a52800 	add	r5, r5, r5
    5fb4:	bea5fffc 	bgeid	r5, -4		// 5fb0
    5fb8:	33bdffff 	addik	r29, r29, -1
    5fbc:	00a52800 	add	r5, r5, r5
    5fc0:	08631800 	addc	r3, r3, r3
    5fc4:	07e61800 	rsub	r31, r6, r3
    5fc8:	bc5f000c 	blti	r31, 12		// 5fd4
    5fcc:	8060f800 	or	r3, r0, r31
    5fd0:	33de0001 	addik	r30, r30, 1
    5fd4:	33bdffff 	addik	r29, r29, -1
    5fd8:	bc1d000c 	beqi	r29, 12		// 5fe4
    5fdc:	03def000 	add	r30, r30, r30
    5fe0:	b800ffdc 	bri	-36		// 5fbc
    5fe4:	bcbc0010 	bgei	r28, 16		// 5ff4
    5fe8:	b810000c 	brid	12		// 5ff4
    5fec:	24630000 	rsubi	r3, r3, 0
    5ff0:	80600000 	or	r3, r0, r0
    5ff4:	eb810000 	lwi	r28, r1, 0
    5ff8:	eba10004 	lwi	r29, r1, 4
    5ffc:	ebc10008 	lwi	r30, r1, 8
    6000:	ebe1000c 	lwi	r31, r1, 12
    6004:	b60f0008 	rtsd	r15, 8
    6008:	30210010 	addik	r1, r1, 16

0000600c <__mulsi3>:
    600c:	00600000 	add	r3, r0, r0
    6010:	bc05004c 	beqi	r5, 76		// 605c
    6014:	bc060048 	beqi	r6, 72		// 605c
    6018:	bea5000c 	bgeid	r5, 12		// 6024
    601c:	88853000 	xor	r4, r5, r6
    6020:	24a50000 	rsubi	r5, r5, 0
    6024:	bca60008 	bgei	r6, 8		// 602c
    6028:	24c60000 	rsubi	r6, r6, 0
    602c:	b8000008 	bri	8		// 6034
    6030:	00a52800 	add	r5, r5, r5
    6034:	90c60041 	srl	r6, r6
    6038:	08e00000 	addc	r7, r0, r0
    603c:	bc07fff4 	beqi	r7, -12		// 6030
    6040:	be26fff0 	bneid	r6, -16		// 6030
    6044:	00632800 	add	r3, r3, r5
    6048:	bc44000c 	blti	r4, 12		// 6054
    604c:	b60f0008 	rtsd	r15, 8
    6050:	80000000 	or	r0, r0, r0
    6054:	b60f0008 	rtsd	r15, 8
    6058:	04630000 	rsub	r3, r3, r0
    605c:	b60f0008 	rtsd	r15, 8
    6060:	20600000 	addi	r3, r0, 0

00006064 <__udivsi3>:
    6064:	3021fff4 	addik	r1, r1, -12
    6068:	fba10000 	swi	r29, r1, 0
    606c:	fbc10004 	swi	r30, r1, 4
    6070:	fbe10008 	swi	r31, r1, 8
    6074:	bc060080 	beqi	r6, 128		// 60f4
    6078:	be05007c 	beqid	r5, 124		// 60f4
    607c:	33c00000 	addik	r30, r0, 0
    6080:	33a00020 	addik	r29, r0, 32	// 20 <_vector_hw_exception>
    6084:	06453000 	rsub	r18, r5, r6
    6088:	be120070 	beqid	r18, 112		// 60f8
    608c:	30600001 	addik	r3, r0, 1
    6090:	8a453000 	xor	r18, r5, r6
    6094:	beb20010 	bgeid	r18, 16		// 60a4
    6098:	00600000 	add	r3, r0, r0
    609c:	bc46005c 	blti	r6, 92		// 60f8
    60a0:	b800000c 	bri	12		// 60ac
    60a4:	06462800 	rsub	r18, r6, r5
    60a8:	bc520050 	blti	r18, 80		// 60f8
    60ac:	bc86000c 	bgti	r6, 12		// 60b8
    60b0:	b8100048 	brid	72		// 60f8
    60b4:	30600001 	addik	r3, r0, 1
    60b8:	bc450010 	blti	r5, 16		// 60c8
    60bc:	00a52800 	add	r5, r5, r5
    60c0:	be85fffc 	bgtid	r5, -4		// 60bc
    60c4:	33bdffff 	addik	r29, r29, -1
    60c8:	00a52800 	add	r5, r5, r5
    60cc:	0bdef000 	addc	r30, r30, r30
    60d0:	07e6f000 	rsub	r31, r6, r30
    60d4:	bc5f000c 	blti	r31, 12		// 60e0
    60d8:	83c0f800 	or	r30, r0, r31
    60dc:	30630001 	addik	r3, r3, 1
    60e0:	33bdffff 	addik	r29, r29, -1
    60e4:	bc1d000c 	beqi	r29, 12		// 60f0
    60e8:	00631800 	add	r3, r3, r3
    60ec:	b800ffdc 	bri	-36		// 60c8
    60f0:	b8000008 	bri	8		// 60f8
    60f4:	80600000 	or	r3, r0, r0
    60f8:	eba10000 	lwi	r29, r1, 0
    60fc:	ebc10004 	lwi	r30, r1, 4
    6100:	ebe10008 	lwi	r31, r1, 8
    6104:	b60f0008 	rtsd	r15, 8
    6108:	3021000c 	addik	r1, r1, 12

0000610c <__umodsi3>:
    610c:	3021fff4 	addik	r1, r1, -12
    6110:	fba10000 	swi	r29, r1, 0
    6114:	fbc10004 	swi	r30, r1, 4
    6118:	fbe10008 	swi	r31, r1, 8
    611c:	bc060094 	beqi	r6, 148		// 61b0
    6120:	be050090 	beqid	r5, 144		// 61b0
    6124:	30600000 	addik	r3, r0, 0
    6128:	33c00000 	addik	r30, r0, 0
    612c:	33a00020 	addik	r29, r0, 32	// 20 <_vector_hw_exception>
    6130:	06453000 	rsub	r18, r5, r6
    6134:	bc120080 	beqi	r18, 128		// 61b4
    6138:	8a453000 	xor	r18, r5, r6
    613c:	beb20010 	bgeid	r18, 16		// 614c
    6140:	30650000 	addik	r3, r5, 0
    6144:	bc460070 	blti	r6, 112		// 61b4
    6148:	b800000c 	bri	12		// 6154
    614c:	06453000 	rsub	r18, r5, r6
    6150:	bc920064 	bgti	r18, 100		// 61b4
    6154:	be860020 	bgtid	r6, 32		// 6174
    6158:	30600000 	addik	r3, r0, 0
    615c:	b0007fff 	imm	32767
    6160:	3240ffff 	addik	r18, r0, -1
    6164:	84a59000 	and	r5, r5, r18
    6168:	84c69000 	and	r6, r6, r18
    616c:	b8100048 	brid	72		// 61b4
    6170:	04662800 	rsub	r3, r6, r5
    6174:	bc450010 	blti	r5, 16		// 6184
    6178:	00a52800 	add	r5, r5, r5
    617c:	bea5fffc 	bgeid	r5, -4		// 6178
    6180:	33bdffff 	addik	r29, r29, -1
    6184:	00a52800 	add	r5, r5, r5
    6188:	08631800 	addc	r3, r3, r3
    618c:	07e61800 	rsub	r31, r6, r3
    6190:	bc5f000c 	blti	r31, 12		// 619c
    6194:	8060f800 	or	r3, r0, r31
    6198:	33de0001 	addik	r30, r30, 1
    619c:	33bdffff 	addik	r29, r29, -1
    61a0:	bc1d000c 	beqi	r29, 12		// 61ac
    61a4:	03def000 	add	r30, r30, r30
    61a8:	b800ffdc 	bri	-36		// 6184
    61ac:	b8000008 	bri	8		// 61b4
    61b0:	80600000 	or	r3, r0, r0
    61b4:	eba10000 	lwi	r29, r1, 0
    61b8:	ebc10004 	lwi	r30, r1, 4
    61bc:	ebe10008 	lwi	r31, r1, 8
    61c0:	b60f0008 	rtsd	r15, 8
    61c4:	3021000c 	addik	r1, r1, 12

000061c8 <__clzsi2>:
    61c8:	b0000000 	imm	0
    61cc:	3060ffff 	addik	r3, r0, -1
    61d0:	16451803 	cmpu	r18, r5, r3
    61d4:	be520044 	bltid	r18, 68		// 6218
    61d8:	306000ff 	addik	r3, r0, 255
    61dc:	16451803 	cmpu	r18, r5, r3
    61e0:	bcb20060 	bgei	r18, 96		// 6240
    61e4:	30600018 	addik	r3, r0, 24
    61e8:	30800008 	addik	r4, r0, 8	// 8 <_vector_sw_exception>
    61ec:	a644001f 	andi	r18, r4, 31
    61f0:	10c02800 	addk	r6, r0, r5
    61f4:	be120014 	beqid	r18, 20		// 6208
    61f8:	10c60000 	addk	r6, r6, r0
    61fc:	3252ffff 	addik	r18, r18, -1
    6200:	be32fffc 	bneid	r18, -4		// 61fc
    6204:	90c60041 	srl	r6, r6
    6208:	b0000000 	imm	0
    620c:	e086731c 	lbui	r4, r6, 29468
    6210:	b60f0008 	rtsd	r15, 8
    6214:	14641800 	rsubk	r3, r4, r3
    6218:	b00000ff 	imm	255
    621c:	3060ffff 	addik	r3, r0, -1
    6220:	16451803 	cmpu	r18, r5, r3
    6224:	bc520010 	blti	r18, 16		// 6234
    6228:	30600010 	addik	r3, r0, 16	// 10 <_vector_interrupt>
    622c:	b810ffc0 	brid	-64		// 61ec
    6230:	10830000 	addk	r4, r3, r0
    6234:	30600008 	addik	r3, r0, 8	// 8 <_vector_sw_exception>
    6238:	b810ffb4 	brid	-76		// 61ec
    623c:	30800018 	addik	r4, r0, 24
    6240:	30600020 	addik	r3, r0, 32	// 20 <_vector_hw_exception>
    6244:	b810ffa8 	brid	-88		// 61ec
    6248:	10800000 	addk	r4, r0, r0

0000624c <__pack_d>:
    624c:	3021ffd0 	addik	r1, r1, -48
    6250:	f9e10000 	swi	r15, r1, 0
    6254:	fa61001c 	swi	r19, r1, 28
    6258:	fac10020 	swi	r22, r1, 32
    625c:	fae10024 	swi	r23, r1, 36
    6260:	fb010028 	swi	r24, r1, 40
    6264:	fb21002c 	swi	r25, r1, 44
    6268:	e8650000 	lwi	r3, r5, 0
    626c:	30800001 	addik	r4, r0, 1
    6270:	eac5000c 	lwi	r22, r5, 12
    6274:	eae50010 	lwi	r23, r5, 16
    6278:	16432003 	cmpu	r18, r3, r4
    627c:	beb20218 	bgeid	r18, 536		// 6494
    6280:	ea650004 	lwi	r19, r5, 4
    6284:	a8830004 	xori	r4, r3, 4
    6288:	be0401f0 	beqid	r4, 496		// 6478
    628c:	a8630002 	xori	r3, r3, 2
    6290:	be030138 	beqid	r3, 312		// 63c8
    6294:	8076b800 	or	r3, r22, r23
    6298:	be030130 	beqid	r3, 304		// 63c8
    629c:	3080fc02 	addik	r4, r0, -1022
    62a0:	e8650008 	lwi	r3, r5, 8
    62a4:	16441801 	cmp	r18, r4, r3
    62a8:	bc520224 	blti	r18, 548		// 64cc
    62ac:	308003ff 	addik	r4, r0, 1023
    62b0:	16432001 	cmp	r18, r3, r4
    62b4:	bc5201c4 	blti	r18, 452		// 6478
    62b8:	30a00000 	addik	r5, r0, 0
    62bc:	308000ff 	addik	r4, r0, 255
    62c0:	84962000 	and	r4, r22, r4
    62c4:	a8c40080 	xori	r6, r4, 128
    62c8:	be060180 	beqid	r6, 384		// 6448
    62cc:	84b72800 	and	r5, r23, r5
    62d0:	30a00000 	addik	r5, r0, 0
    62d4:	3080007f 	addik	r4, r0, 127
    62d8:	02d62000 	add	r22, r22, r4
    62dc:	0af72800 	addc	r23, r23, r5
    62e0:	b0001fff 	imm	8191
    62e4:	3080ffff 	addik	r4, r0, -1
    62e8:	16572003 	cmpu	r18, r23, r4
    62ec:	be520138 	bltid	r18, 312		// 6424
    62f0:	90b60041 	srl	r5, r22
    62f4:	306303ff 	addik	r3, r3, 1023
    62f8:	90d70021 	src	r6, r23
    62fc:	90c60021 	src	r6, r6
    6300:	90c60021 	src	r6, r6
    6304:	90c60021 	src	r6, r6
    6308:	90c60021 	src	r6, r6
    630c:	90c60021 	src	r6, r6
    6310:	90c60021 	src	r6, r6
    6314:	90c60021 	src	r6, r6
    6318:	90c60021 	src	r6, r6
    631c:	b000ff00 	imm	-256
    6320:	a4c60000 	andi	r6, r6, 0
    6324:	b000000f 	imm	15
    6328:	3160ffff 	addik	r11, r0, -1
    632c:	3140ffff 	addik	r10, r0, -1
    6330:	1080b000 	addk	r4, r0, r22
    6334:	90960041 	srl	r4, r22
    6338:	90840041 	srl	r4, r4
    633c:	90840041 	srl	r4, r4
    6340:	90840041 	srl	r4, r4
    6344:	90840041 	srl	r4, r4
    6348:	90840041 	srl	r4, r4
    634c:	90840041 	srl	r4, r4
    6350:	90840041 	srl	r4, r4
    6354:	80862000 	or	r4, r6, r4
    6358:	10a0b800 	addk	r5, r0, r23
    635c:	90b70041 	srl	r5, r23
    6360:	90a50041 	srl	r5, r5
    6364:	90a50041 	srl	r5, r5
    6368:	90a50041 	srl	r5, r5
    636c:	90a50041 	srl	r5, r5
    6370:	90a50041 	srl	r5, r5
    6374:	90a50041 	srl	r5, r5
    6378:	90a50041 	srl	r5, r5
    637c:	90e30021 	src	r7, r3
    6380:	90e70021 	src	r7, r7
    6384:	90e70021 	src	r7, r7
    6388:	90e70021 	src	r7, r7
    638c:	90e70021 	src	r7, r7
    6390:	90e70021 	src	r7, r7
    6394:	90e70021 	src	r7, r7
    6398:	90e70021 	src	r7, r7
    639c:	90e70021 	src	r7, r7
    63a0:	90e70021 	src	r7, r7
    63a4:	90e70021 	src	r7, r7
    63a8:	90e70021 	src	r7, r7
    63ac:	90e70021 	src	r7, r7
    63b0:	b000fff0 	imm	-16
    63b4:	a4e70000 	andi	r7, r7, 0
    63b8:	85445000 	and	r10, r4, r10
    63bc:	85655800 	and	r11, r5, r11
    63c0:	b8100018 	brid	24		// 63d8
    63c4:	10c00000 	addk	r6, r0, r0
    63c8:	30e00000 	addik	r7, r0, 0
    63cc:	30c00000 	addik	r6, r0, 0
    63d0:	11460000 	addk	r10, r6, r0
    63d4:	11670000 	addk	r11, r7, r0
    63d8:	80ca3000 	or	r6, r10, r6
    63dc:	80eb3800 	or	r7, r11, r7
    63e0:	10a00000 	addk	r5, r0, r0
    63e4:	91330021 	src	r9, r19
    63e8:	91290021 	src	r9, r9
    63ec:	b0008000 	imm	-32768
    63f0:	a5290000 	andi	r9, r9, 0
    63f4:	81062800 	or	r8, r6, r5
    63f8:	81274800 	or	r9, r7, r9
    63fc:	10680000 	addk	r3, r8, r0
    6400:	10890000 	addk	r4, r9, r0
    6404:	e9e10000 	lwi	r15, r1, 0
    6408:	ea61001c 	lwi	r19, r1, 28
    640c:	eac10020 	lwi	r22, r1, 32
    6410:	eae10024 	lwi	r23, r1, 36
    6414:	eb010028 	lwi	r24, r1, 40
    6418:	eb21002c 	lwi	r25, r1, 44
    641c:	b60f0008 	rtsd	r15, 8
    6420:	30210030 	addik	r1, r1, 48
    6424:	90970041 	srl	r4, r23
    6428:	90d70021 	src	r6, r23
    642c:	90c60021 	src	r6, r6
    6430:	b0008000 	imm	-32768
    6434:	a4c60000 	andi	r6, r6, 0
    6438:	30630400 	addik	r3, r3, 1024
    643c:	82c62800 	or	r22, r6, r5
    6440:	b810feb8 	brid	-328		// 62f8
    6444:	12e40000 	addk	r23, r4, r0
    6448:	bc25fe88 	bnei	r5, -376		// 62d0
    644c:	30a00000 	addik	r5, r0, 0
    6450:	30800100 	addik	r4, r0, 256
    6454:	84962000 	and	r4, r22, r4
    6458:	84b72800 	and	r5, r23, r5
    645c:	80842800 	or	r4, r4, r5
    6460:	bc04fe80 	beqi	r4, -384		// 62e0
    6464:	30a00000 	addik	r5, r0, 0
    6468:	30800080 	addik	r4, r0, 128	// 80 <_exit>
    646c:	02d62000 	add	r22, r22, r4
    6470:	0af72800 	addc	r23, r23, r5
    6474:	b800fe6c 	bri	-404		// 62e0
    6478:	b0007ff0 	imm	32752
    647c:	30e00000 	addik	r7, r0, 0
    6480:	30c00000 	addik	r6, r0, 0
    6484:	31600000 	addik	r11, r0, 0
    6488:	31400000 	addik	r10, r0, 0
    648c:	b810ff50 	brid	-176		// 63dc
    6490:	80ca3000 	or	r6, r10, r6
    6494:	b0000008 	imm	8
    6498:	31600000 	addik	r11, r0, 0
    649c:	31400000 	addik	r10, r0, 0
    64a0:	b000000f 	imm	15
    64a4:	30a0ffff 	addik	r5, r0, -1
    64a8:	3080ffff 	addik	r4, r0, -1
    64ac:	81565000 	or	r10, r22, r10
    64b0:	81775800 	or	r11, r23, r11
    64b4:	854a2000 	and	r10, r10, r4
    64b8:	b0007ff0 	imm	32752
    64bc:	30e00000 	addik	r7, r0, 0
    64c0:	30c00000 	addik	r6, r0, 0
    64c4:	b810ff14 	brid	-236		// 63d8
    64c8:	856b2800 	and	r11, r11, r5
    64cc:	17032000 	rsubk	r24, r3, r4
    64d0:	30600038 	addik	r3, r0, 56
    64d4:	30a00000 	addik	r5, r0, 0
    64d8:	30800000 	addik	r4, r0, 0
    64dc:	16581801 	cmp	r18, r24, r3
    64e0:	be520220 	bltid	r18, 544		// 6700
    64e4:	10f80000 	addk	r7, r24, r0
    64e8:	10b60000 	addk	r5, r22, r0
    64ec:	b0000000 	imm	0
    64f0:	b9f405dc 	brlid	r15, 1500	// 6acc <__lshrdi3>
    64f4:	10d70000 	addk	r6, r23, r0
    64f8:	10f80000 	addk	r7, r24, r0
    64fc:	30c00000 	addik	r6, r0, 0
    6500:	30a00001 	addik	r5, r0, 1
    6504:	13030000 	addk	r24, r3, r0
    6508:	b0000000 	imm	0
    650c:	b9f40668 	brlid	r15, 1640	// 6b74 <__ashldi3>
    6510:	13240000 	addk	r25, r4, r0
    6514:	10a40000 	addk	r5, r4, r0
    6518:	10830000 	addk	r4, r3, r0
    651c:	30e0ffff 	addik	r7, r0, -1
    6520:	30c0ffff 	addik	r6, r0, -1
    6524:	00843000 	add	r4, r4, r6
    6528:	08a53800 	addc	r5, r5, r7
    652c:	86c4b000 	and	r22, r4, r22
    6530:	86e5b800 	and	r23, r5, r23
    6534:	82d6b800 	or	r22, r22, r23
    6538:	14760000 	rsubk	r3, r22, r0
    653c:	82c3b000 	or	r22, r3, r22
    6540:	10c0b000 	addk	r6, r0, r22
    6544:	90d60041 	srl	r6, r22
    6548:	90c60041 	srl	r6, r6
    654c:	90c60041 	srl	r6, r6
    6550:	90c60041 	srl	r6, r6
    6554:	90c60041 	srl	r6, r6
    6558:	90c60041 	srl	r6, r6
    655c:	90c60041 	srl	r6, r6
    6560:	90c60041 	srl	r6, r6
    6564:	90c60041 	srl	r6, r6
    6568:	90c60041 	srl	r6, r6
    656c:	90c60041 	srl	r6, r6
    6570:	90c60041 	srl	r6, r6
    6574:	90c60041 	srl	r6, r6
    6578:	90c60041 	srl	r6, r6
    657c:	90c60041 	srl	r6, r6
    6580:	90c60041 	srl	r6, r6
    6584:	90c60041 	srl	r6, r6
    6588:	90c60041 	srl	r6, r6
    658c:	90c60041 	srl	r6, r6
    6590:	90c60041 	srl	r6, r6
    6594:	90c60041 	srl	r6, r6
    6598:	90c60041 	srl	r6, r6
    659c:	90c60041 	srl	r6, r6
    65a0:	90c60041 	srl	r6, r6
    65a4:	90c60041 	srl	r6, r6
    65a8:	90c60041 	srl	r6, r6
    65ac:	90c60041 	srl	r6, r6
    65b0:	90c60041 	srl	r6, r6
    65b4:	90c60041 	srl	r6, r6
    65b8:	90c60041 	srl	r6, r6
    65bc:	90c60041 	srl	r6, r6
    65c0:	10e00000 	addk	r7, r0, r0
    65c4:	8086c000 	or	r4, r6, r24
    65c8:	80a7c800 	or	r5, r7, r25
    65cc:	30e00000 	addik	r7, r0, 0
    65d0:	30c000ff 	addik	r6, r0, 255
    65d4:	84c43000 	and	r6, r4, r6
    65d8:	a8660080 	xori	r3, r6, 128
    65dc:	be230124 	bneid	r3, 292		// 6700
    65e0:	84e53800 	and	r7, r5, r7
    65e4:	bc27011c 	bnei	r7, 284		// 6700
    65e8:	30e00000 	addik	r7, r0, 0
    65ec:	30c00100 	addik	r6, r0, 256
    65f0:	84c43000 	and	r6, r4, r6
    65f4:	84e53800 	and	r7, r5, r7
    65f8:	80c63800 	or	r6, r6, r7
    65fc:	bc060014 	beqi	r6, 20		// 6610
    6600:	30e00000 	addik	r7, r0, 0
    6604:	30c00080 	addik	r6, r0, 128	// 80 <_exit>
    6608:	00843000 	add	r4, r4, r6
    660c:	08a53800 	addc	r5, r5, r7
    6610:	90650021 	src	r3, r5
    6614:	90630021 	src	r3, r3
    6618:	90630021 	src	r3, r3
    661c:	90630021 	src	r3, r3
    6620:	90630021 	src	r3, r3
    6624:	90630021 	src	r3, r3
    6628:	90630021 	src	r3, r3
    662c:	90630021 	src	r3, r3
    6630:	90630021 	src	r3, r3
    6634:	b000ff00 	imm	-256
    6638:	a4630000 	andi	r3, r3, 0
    663c:	10c02000 	addk	r6, r0, r4
    6640:	90c40041 	srl	r6, r4
    6644:	90c60041 	srl	r6, r6
    6648:	90c60041 	srl	r6, r6
    664c:	90c60041 	srl	r6, r6
    6650:	90c60041 	srl	r6, r6
    6654:	90c60041 	srl	r6, r6
    6658:	90c60041 	srl	r6, r6
    665c:	90c60041 	srl	r6, r6
    6660:	80c33000 	or	r6, r3, r6
    6664:	b0000fff 	imm	4095
    6668:	3060ffff 	addik	r3, r0, -1
    666c:	b000000f 	imm	15
    6670:	3160ffff 	addik	r11, r0, -1
    6674:	3140ffff 	addik	r10, r0, -1
    6678:	10e02800 	addk	r7, r0, r5
    667c:	90e50041 	srl	r7, r5
    6680:	90e70041 	srl	r7, r7
    6684:	90e70041 	srl	r7, r7
    6688:	90e70041 	srl	r7, r7
    668c:	90e70041 	srl	r7, r7
    6690:	90e70041 	srl	r7, r7
    6694:	90e70041 	srl	r7, r7
    6698:	90e70041 	srl	r7, r7
    669c:	31200000 	addik	r9, r0, 0
    66a0:	31000001 	addik	r8, r0, 1
    66a4:	85465000 	and	r10, r6, r10
    66a8:	16451803 	cmpu	r18, r5, r3
    66ac:	be520010 	bltid	r18, 16		// 66bc
    66b0:	85675800 	and	r11, r7, r11
    66b4:	31200000 	addik	r9, r0, 0
    66b8:	31000000 	addik	r8, r0, 0
    66bc:	90e80021 	src	r7, r8
    66c0:	90e70021 	src	r7, r7
    66c4:	90e70021 	src	r7, r7
    66c8:	90e70021 	src	r7, r7
    66cc:	90e70021 	src	r7, r7
    66d0:	90e70021 	src	r7, r7
    66d4:	90e70021 	src	r7, r7
    66d8:	90e70021 	src	r7, r7
    66dc:	90e70021 	src	r7, r7
    66e0:	90e70021 	src	r7, r7
    66e4:	90e70021 	src	r7, r7
    66e8:	90e70021 	src	r7, r7
    66ec:	90e70021 	src	r7, r7
    66f0:	b000fff0 	imm	-16
    66f4:	a4e70000 	andi	r7, r7, 0
    66f8:	b810fce0 	brid	-800		// 63d8
    66fc:	10c00000 	addk	r6, r0, r0
    6700:	30e00000 	addik	r7, r0, 0
    6704:	30c0007f 	addik	r6, r0, 127
    6708:	00843000 	add	r4, r4, r6
    670c:	08a53800 	addc	r5, r5, r7
    6710:	b800ff00 	bri	-256		// 6610

00006714 <__unpack_d>:
    6714:	e9050000 	lwi	r8, r5, 0
    6718:	e9250004 	lwi	r9, r5, 4
    671c:	10804800 	addk	r4, r0, r9
    6720:	90890041 	srl	r4, r9
    6724:	90840041 	srl	r4, r4
    6728:	90840041 	srl	r4, r4
    672c:	90840041 	srl	r4, r4
    6730:	90840041 	srl	r4, r4
    6734:	90840041 	srl	r4, r4
    6738:	90840041 	srl	r4, r4
    673c:	90840041 	srl	r4, r4
    6740:	90840041 	srl	r4, r4
    6744:	90840041 	srl	r4, r4
    6748:	90840041 	srl	r4, r4
    674c:	90840041 	srl	r4, r4
    6750:	90840041 	srl	r4, r4
    6754:	90840041 	srl	r4, r4
    6758:	90840041 	srl	r4, r4
    675c:	90840041 	srl	r4, r4
    6760:	90840041 	srl	r4, r4
    6764:	90840041 	srl	r4, r4
    6768:	90840041 	srl	r4, r4
    676c:	90840041 	srl	r4, r4
    6770:	90840041 	srl	r4, r4
    6774:	90840041 	srl	r4, r4
    6778:	90840041 	srl	r4, r4
    677c:	90840041 	srl	r4, r4
    6780:	90840041 	srl	r4, r4
    6784:	90840041 	srl	r4, r4
    6788:	90840041 	srl	r4, r4
    678c:	90840041 	srl	r4, r4
    6790:	90840041 	srl	r4, r4
    6794:	90840041 	srl	r4, r4
    6798:	90840041 	srl	r4, r4
    679c:	10604800 	addk	r3, r0, r9
    67a0:	90690041 	srl	r3, r9
    67a4:	90630041 	srl	r3, r3
    67a8:	90630041 	srl	r3, r3
    67ac:	90630041 	srl	r3, r3
    67b0:	90630041 	srl	r3, r3
    67b4:	90630041 	srl	r3, r3
    67b8:	90630041 	srl	r3, r3
    67bc:	90630041 	srl	r3, r3
    67c0:	90630041 	srl	r3, r3
    67c4:	90630041 	srl	r3, r3
    67c8:	90630041 	srl	r3, r3
    67cc:	90630041 	srl	r3, r3
    67d0:	90630041 	srl	r3, r3
    67d4:	90630041 	srl	r3, r3
    67d8:	90630041 	srl	r3, r3
    67dc:	90630041 	srl	r3, r3
    67e0:	90630041 	srl	r3, r3
    67e4:	90630041 	srl	r3, r3
    67e8:	90630041 	srl	r3, r3
    67ec:	90630041 	srl	r3, r3
    67f0:	f8860004 	swi	r4, r6, 4
    67f4:	a46307ff 	andi	r3, r3, 2047
    67f8:	b000000f 	imm	15
    67fc:	30a0ffff 	addik	r5, r0, -1
    6800:	3080ffff 	addik	r4, r0, -1
    6804:	84882000 	and	r4, r8, r4
    6808:	be23017c 	bneid	r3, 380		// 6984
    680c:	84a92800 	and	r5, r9, r5
    6810:	80642800 	or	r3, r4, r5
    6814:	be03025c 	beqid	r3, 604		// 6a70
    6818:	30e00003 	addik	r7, r0, 3
    681c:	b0000fff 	imm	4095
    6820:	3100ffff 	addik	r8, r0, -1
    6824:	10602800 	addk	r3, r0, r5
    6828:	10652800 	addk	r3, r5, r5
    682c:	10631800 	addk	r3, r3, r3
    6830:	10631800 	addk	r3, r3, r3
    6834:	10631800 	addk	r3, r3, r3
    6838:	10631800 	addk	r3, r3, r3
    683c:	10631800 	addk	r3, r3, r3
    6840:	10631800 	addk	r3, r3, r3
    6844:	10631800 	addk	r3, r3, r3
    6848:	f8e60000 	swi	r7, r6, 0
    684c:	11202000 	addk	r9, r0, r4
    6850:	91240041 	srl	r9, r4
    6854:	91290041 	srl	r9, r9
    6858:	91290041 	srl	r9, r9
    685c:	91290041 	srl	r9, r9
    6860:	91290041 	srl	r9, r9
    6864:	91290041 	srl	r9, r9
    6868:	91290041 	srl	r9, r9
    686c:	91290041 	srl	r9, r9
    6870:	91290041 	srl	r9, r9
    6874:	91290041 	srl	r9, r9
    6878:	91290041 	srl	r9, r9
    687c:	91290041 	srl	r9, r9
    6880:	91290041 	srl	r9, r9
    6884:	91290041 	srl	r9, r9
    6888:	91290041 	srl	r9, r9
    688c:	91290041 	srl	r9, r9
    6890:	91290041 	srl	r9, r9
    6894:	91290041 	srl	r9, r9
    6898:	91290041 	srl	r9, r9
    689c:	91290041 	srl	r9, r9
    68a0:	91290041 	srl	r9, r9
    68a4:	91290041 	srl	r9, r9
    68a8:	91290041 	srl	r9, r9
    68ac:	91290041 	srl	r9, r9
    68b0:	30e0fc02 	addik	r7, r0, -1022
    68b4:	80691800 	or	r3, r9, r3
    68b8:	10a02000 	addk	r5, r0, r4
    68bc:	10a42000 	addk	r5, r4, r4
    68c0:	10a52800 	addk	r5, r5, r5
    68c4:	10a52800 	addk	r5, r5, r5
    68c8:	10a52800 	addk	r5, r5, r5
    68cc:	10a52800 	addk	r5, r5, r5
    68d0:	10a52800 	addk	r5, r5, r5
    68d4:	10a52800 	addk	r5, r5, r5
    68d8:	10a52800 	addk	r5, r5, r5
    68dc:	10631800 	addk	r3, r3, r3
    68e0:	10802800 	addk	r4, r0, r5
    68e4:	90850041 	srl	r4, r5
    68e8:	90840041 	srl	r4, r4
    68ec:	90840041 	srl	r4, r4
    68f0:	90840041 	srl	r4, r4
    68f4:	90840041 	srl	r4, r4
    68f8:	90840041 	srl	r4, r4
    68fc:	90840041 	srl	r4, r4
    6900:	90840041 	srl	r4, r4
    6904:	90840041 	srl	r4, r4
    6908:	90840041 	srl	r4, r4
    690c:	90840041 	srl	r4, r4
    6910:	90840041 	srl	r4, r4
    6914:	90840041 	srl	r4, r4
    6918:	90840041 	srl	r4, r4
    691c:	90840041 	srl	r4, r4
    6920:	90840041 	srl	r4, r4
    6924:	90840041 	srl	r4, r4
    6928:	90840041 	srl	r4, r4
    692c:	90840041 	srl	r4, r4
    6930:	90840041 	srl	r4, r4
    6934:	90840041 	srl	r4, r4
    6938:	90840041 	srl	r4, r4
    693c:	90840041 	srl	r4, r4
    6940:	90840041 	srl	r4, r4
    6944:	90840041 	srl	r4, r4
    6948:	90840041 	srl	r4, r4
    694c:	90840041 	srl	r4, r4
    6950:	90840041 	srl	r4, r4
    6954:	90840041 	srl	r4, r4
    6958:	90840041 	srl	r4, r4
    695c:	90840041 	srl	r4, r4
    6960:	80641800 	or	r3, r4, r3
    6964:	10a52800 	addk	r5, r5, r5
    6968:	16434003 	cmpu	r18, r3, r8
    696c:	beb2ff70 	bgeid	r18, -144		// 68dc
    6970:	30e7ffff 	addik	r7, r7, -1
    6974:	f8e60008 	swi	r7, r6, 8
    6978:	f8a6000c 	swi	r5, r6, 12
